; Listing generated by Microsoft (R) Optimizing Compiler Version 19.15.26726.0 

	TITLE	C:\Users\bachmaer\Downloads\glm-0.9.9.0\glm\glm\detail\glm.cpp
	.686P
	.XMM
	include listing.inc
	.model	flat

INCLUDELIB MSVCRT
INCLUDELIB OLDNAMES

PUBLIC	?cos@@YAMM@Z					; cos
PUBLIC	?sin@@YAMM@Z					; sin
PUBLIC	?length@?$vec@$01M$0A@@glm@@SAHXZ		; glm::vec<2,float,0>::length
PUBLIC	??A?$vec@$01M$0A@@glm@@QAEAAMH@Z		; glm::vec<2,float,0>::operator[]
PUBLIC	??A?$vec@$01M$0A@@glm@@QBEABMH@Z		; glm::vec<2,float,0>::operator[]
PUBLIC	??0?$vec@$01M$0A@@glm@@QAE@M@Z			; glm::vec<2,float,0>::vec<2,float,0>
PUBLIC	??0?$vec@$01M$0A@@glm@@QAE@MM@Z			; glm::vec<2,float,0>::vec<2,float,0>
PUBLIC	??E?$vec@$01M$0A@@glm@@QAEAAU01@XZ		; glm::vec<2,float,0>::operator++
PUBLIC	??F?$vec@$01M$0A@@glm@@QAEAAU01@XZ		; glm::vec<2,float,0>::operator--
PUBLIC	??E?$vec@$01M$0A@@glm@@QAE?AU01@H@Z		; glm::vec<2,float,0>::operator++
PUBLIC	??F?$vec@$01M$0A@@glm@@QAE?AU01@H@Z		; glm::vec<2,float,0>::operator--
PUBLIC	?length@?$vec@$01G$0A@@glm@@SAHXZ		; glm::vec<2,unsigned short,0>::length
PUBLIC	??A?$vec@$01G$0A@@glm@@QAEAAGH@Z		; glm::vec<2,unsigned short,0>::operator[]
PUBLIC	??A?$vec@$01G$0A@@glm@@QBEABGH@Z		; glm::vec<2,unsigned short,0>::operator[]
PUBLIC	??0?$vec@$01G$0A@@glm@@QAE@G@Z			; glm::vec<2,unsigned short,0>::vec<2,unsigned short,0>
PUBLIC	??0?$vec@$01G$0A@@glm@@QAE@GG@Z			; glm::vec<2,unsigned short,0>::vec<2,unsigned short,0>
PUBLIC	??E?$vec@$01G$0A@@glm@@QAEAAU01@XZ		; glm::vec<2,unsigned short,0>::operator++
PUBLIC	??F?$vec@$01G$0A@@glm@@QAEAAU01@XZ		; glm::vec<2,unsigned short,0>::operator--
PUBLIC	??E?$vec@$01G$0A@@glm@@QAE?AU01@H@Z		; glm::vec<2,unsigned short,0>::operator++
PUBLIC	??F?$vec@$01G$0A@@glm@@QAE?AU01@H@Z		; glm::vec<2,unsigned short,0>::operator--
PUBLIC	?length@?$vec@$01F$0A@@glm@@SAHXZ		; glm::vec<2,short,0>::length
PUBLIC	??A?$vec@$01F$0A@@glm@@QAEAAFH@Z		; glm::vec<2,short,0>::operator[]
PUBLIC	??A?$vec@$01F$0A@@glm@@QBEABFH@Z		; glm::vec<2,short,0>::operator[]
PUBLIC	??0?$vec@$01F$0A@@glm@@QAE@F@Z			; glm::vec<2,short,0>::vec<2,short,0>
PUBLIC	??0?$vec@$01F$0A@@glm@@QAE@FF@Z			; glm::vec<2,short,0>::vec<2,short,0>
PUBLIC	??E?$vec@$01F$0A@@glm@@QAEAAU01@XZ		; glm::vec<2,short,0>::operator++
PUBLIC	??F?$vec@$01F$0A@@glm@@QAEAAU01@XZ		; glm::vec<2,short,0>::operator--
PUBLIC	??E?$vec@$01F$0A@@glm@@QAE?AU01@H@Z		; glm::vec<2,short,0>::operator++
PUBLIC	??F?$vec@$01F$0A@@glm@@QAE?AU01@H@Z		; glm::vec<2,short,0>::operator--
PUBLIC	?length@?$vec@$03M$0A@@glm@@SAHXZ		; glm::vec<4,float,0>::length
PUBLIC	??A?$vec@$03M$0A@@glm@@QAEAAMH@Z		; glm::vec<4,float,0>::operator[]
PUBLIC	??A?$vec@$03M$0A@@glm@@QBEABMH@Z		; glm::vec<4,float,0>::operator[]
PUBLIC	??0?$vec@$03M$0A@@glm@@QAE@M@Z			; glm::vec<4,float,0>::vec<4,float,0>
PUBLIC	??0?$vec@$03M$0A@@glm@@QAE@MMMM@Z		; glm::vec<4,float,0>::vec<4,float,0>
PUBLIC	??E?$vec@$03M$0A@@glm@@QAEAAU01@XZ		; glm::vec<4,float,0>::operator++
PUBLIC	??F?$vec@$03M$0A@@glm@@QAEAAU01@XZ		; glm::vec<4,float,0>::operator--
PUBLIC	??E?$vec@$03M$0A@@glm@@QAE?AU01@H@Z		; glm::vec<4,float,0>::operator++
PUBLIC	??F?$vec@$03M$0A@@glm@@QAE?AU01@H@Z		; glm::vec<4,float,0>::operator--
PUBLIC	?length@?$vec@$03E$0A@@glm@@SAHXZ		; glm::vec<4,unsigned char,0>::length
PUBLIC	??A?$vec@$03E$0A@@glm@@QAEAAEH@Z		; glm::vec<4,unsigned char,0>::operator[]
PUBLIC	??A?$vec@$03E$0A@@glm@@QBEABEH@Z		; glm::vec<4,unsigned char,0>::operator[]
PUBLIC	??0?$vec@$03E$0A@@glm@@QAE@E@Z			; glm::vec<4,unsigned char,0>::vec<4,unsigned char,0>
PUBLIC	??0?$vec@$03E$0A@@glm@@QAE@EEEE@Z		; glm::vec<4,unsigned char,0>::vec<4,unsigned char,0>
PUBLIC	??E?$vec@$03E$0A@@glm@@QAEAAU01@XZ		; glm::vec<4,unsigned char,0>::operator++
PUBLIC	??F?$vec@$03E$0A@@glm@@QAEAAU01@XZ		; glm::vec<4,unsigned char,0>::operator--
PUBLIC	??E?$vec@$03E$0A@@glm@@QAE?AU01@H@Z		; glm::vec<4,unsigned char,0>::operator++
PUBLIC	??F?$vec@$03E$0A@@glm@@QAE?AU01@H@Z		; glm::vec<4,unsigned char,0>::operator--
PUBLIC	?length@?$vec@$03C$0A@@glm@@SAHXZ		; glm::vec<4,signed char,0>::length
PUBLIC	??A?$vec@$03C$0A@@glm@@QAEAACH@Z		; glm::vec<4,signed char,0>::operator[]
PUBLIC	??A?$vec@$03C$0A@@glm@@QBEABCH@Z		; glm::vec<4,signed char,0>::operator[]
PUBLIC	??0?$vec@$03C$0A@@glm@@QAE@C@Z			; glm::vec<4,signed char,0>::vec<4,signed char,0>
PUBLIC	??0?$vec@$03C$0A@@glm@@QAE@CCCC@Z		; glm::vec<4,signed char,0>::vec<4,signed char,0>
PUBLIC	??E?$vec@$03C$0A@@glm@@QAEAAU01@XZ		; glm::vec<4,signed char,0>::operator++
PUBLIC	??F?$vec@$03C$0A@@glm@@QAEAAU01@XZ		; glm::vec<4,signed char,0>::operator--
PUBLIC	??E?$vec@$03C$0A@@glm@@QAE?AU01@H@Z		; glm::vec<4,signed char,0>::operator++
PUBLIC	??F?$vec@$03C$0A@@glm@@QAE?AU01@H@Z		; glm::vec<4,signed char,0>::operator--
PUBLIC	?length@?$vec@$01I$0A@@glm@@SAHXZ		; glm::vec<2,unsigned int,0>::length
PUBLIC	??A?$vec@$01I$0A@@glm@@QAEAAIH@Z		; glm::vec<2,unsigned int,0>::operator[]
PUBLIC	??A?$vec@$01I$0A@@glm@@QBEABIH@Z		; glm::vec<2,unsigned int,0>::operator[]
PUBLIC	??0?$vec@$01I$0A@@glm@@QAE@I@Z			; glm::vec<2,unsigned int,0>::vec<2,unsigned int,0>
PUBLIC	??0?$vec@$01I$0A@@glm@@QAE@II@Z			; glm::vec<2,unsigned int,0>::vec<2,unsigned int,0>
PUBLIC	??E?$vec@$01I$0A@@glm@@QAEAAU01@XZ		; glm::vec<2,unsigned int,0>::operator++
PUBLIC	??F?$vec@$01I$0A@@glm@@QAEAAU01@XZ		; glm::vec<2,unsigned int,0>::operator--
PUBLIC	??E?$vec@$01I$0A@@glm@@QAE?AU01@H@Z		; glm::vec<2,unsigned int,0>::operator++
PUBLIC	??F?$vec@$01I$0A@@glm@@QAE?AU01@H@Z		; glm::vec<2,unsigned int,0>::operator--
PUBLIC	?length@?$vec@$00E$01@glm@@SAHXZ		; glm::vec<1,unsigned char,2>::length
PUBLIC	??A?$vec@$00E$01@glm@@QAEAAEH@Z			; glm::vec<1,unsigned char,2>::operator[]
PUBLIC	??A?$vec@$00E$01@glm@@QBEABEH@Z			; glm::vec<1,unsigned char,2>::operator[]
PUBLIC	??0?$vec@$00E$01@glm@@QAE@E@Z			; glm::vec<1,unsigned char,2>::vec<1,unsigned char,2>
PUBLIC	??E?$vec@$00E$01@glm@@QAEAAU01@XZ		; glm::vec<1,unsigned char,2>::operator++
PUBLIC	??F?$vec@$00E$01@glm@@QAEAAU01@XZ		; glm::vec<1,unsigned char,2>::operator--
PUBLIC	??E?$vec@$00E$01@glm@@QAE?AU01@H@Z		; glm::vec<1,unsigned char,2>::operator++
PUBLIC	??F?$vec@$00E$01@glm@@QAE?AU01@H@Z		; glm::vec<1,unsigned char,2>::operator--
PUBLIC	?length@?$vec@$00G$01@glm@@SAHXZ		; glm::vec<1,unsigned short,2>::length
PUBLIC	??A?$vec@$00G$01@glm@@QAEAAGH@Z			; glm::vec<1,unsigned short,2>::operator[]
PUBLIC	??A?$vec@$00G$01@glm@@QBEABGH@Z			; glm::vec<1,unsigned short,2>::operator[]
PUBLIC	??0?$vec@$00G$01@glm@@QAE@G@Z			; glm::vec<1,unsigned short,2>::vec<1,unsigned short,2>
PUBLIC	??E?$vec@$00G$01@glm@@QAEAAU01@XZ		; glm::vec<1,unsigned short,2>::operator++
PUBLIC	??F?$vec@$00G$01@glm@@QAEAAU01@XZ		; glm::vec<1,unsigned short,2>::operator--
PUBLIC	??E?$vec@$00G$01@glm@@QAE?AU01@H@Z		; glm::vec<1,unsigned short,2>::operator++
PUBLIC	??F?$vec@$00G$01@glm@@QAE?AU01@H@Z		; glm::vec<1,unsigned short,2>::operator--
PUBLIC	?length@?$vec@$00I$01@glm@@SAHXZ		; glm::vec<1,unsigned int,2>::length
PUBLIC	??A?$vec@$00I$01@glm@@QAEAAIH@Z			; glm::vec<1,unsigned int,2>::operator[]
PUBLIC	??A?$vec@$00I$01@glm@@QBEABIH@Z			; glm::vec<1,unsigned int,2>::operator[]
PUBLIC	??0?$vec@$00I$01@glm@@QAE@I@Z			; glm::vec<1,unsigned int,2>::vec<1,unsigned int,2>
PUBLIC	??E?$vec@$00I$01@glm@@QAEAAU01@XZ		; glm::vec<1,unsigned int,2>::operator++
PUBLIC	??F?$vec@$00I$01@glm@@QAEAAU01@XZ		; glm::vec<1,unsigned int,2>::operator--
PUBLIC	??E?$vec@$00I$01@glm@@QAE?AU01@H@Z		; glm::vec<1,unsigned int,2>::operator++
PUBLIC	??F?$vec@$00I$01@glm@@QAE?AU01@H@Z		; glm::vec<1,unsigned int,2>::operator--
PUBLIC	?length@?$vec@$00_K$01@glm@@SAHXZ		; glm::vec<1,unsigned __int64,2>::length
PUBLIC	??A?$vec@$00_K$01@glm@@QAEAA_KH@Z		; glm::vec<1,unsigned __int64,2>::operator[]
PUBLIC	??A?$vec@$00_K$01@glm@@QBEAB_KH@Z		; glm::vec<1,unsigned __int64,2>::operator[]
PUBLIC	??0?$vec@$00_K$01@glm@@QAE@_K@Z			; glm::vec<1,unsigned __int64,2>::vec<1,unsigned __int64,2>
PUBLIC	??E?$vec@$00_K$01@glm@@QAEAAU01@XZ		; glm::vec<1,unsigned __int64,2>::operator++
PUBLIC	??F?$vec@$00_K$01@glm@@QAEAAU01@XZ		; glm::vec<1,unsigned __int64,2>::operator--
PUBLIC	??E?$vec@$00_K$01@glm@@QAE?AU01@H@Z		; glm::vec<1,unsigned __int64,2>::operator++
PUBLIC	??F?$vec@$00_K$01@glm@@QAE?AU01@H@Z		; glm::vec<1,unsigned __int64,2>::operator--
PUBLIC	?length@?$vec@$00C$01@glm@@SAHXZ		; glm::vec<1,signed char,2>::length
PUBLIC	??A?$vec@$00C$01@glm@@QAEAACH@Z			; glm::vec<1,signed char,2>::operator[]
PUBLIC	??A?$vec@$00C$01@glm@@QBEABCH@Z			; glm::vec<1,signed char,2>::operator[]
PUBLIC	??0?$vec@$00C$01@glm@@QAE@C@Z			; glm::vec<1,signed char,2>::vec<1,signed char,2>
PUBLIC	??E?$vec@$00C$01@glm@@QAEAAU01@XZ		; glm::vec<1,signed char,2>::operator++
PUBLIC	??F?$vec@$00C$01@glm@@QAEAAU01@XZ		; glm::vec<1,signed char,2>::operator--
PUBLIC	??E?$vec@$00C$01@glm@@QAE?AU01@H@Z		; glm::vec<1,signed char,2>::operator++
PUBLIC	??F?$vec@$00C$01@glm@@QAE?AU01@H@Z		; glm::vec<1,signed char,2>::operator--
PUBLIC	?length@?$vec@$00F$01@glm@@SAHXZ		; glm::vec<1,short,2>::length
PUBLIC	??A?$vec@$00F$01@glm@@QAEAAFH@Z			; glm::vec<1,short,2>::operator[]
PUBLIC	??A?$vec@$00F$01@glm@@QBEABFH@Z			; glm::vec<1,short,2>::operator[]
PUBLIC	??0?$vec@$00F$01@glm@@QAE@F@Z			; glm::vec<1,short,2>::vec<1,short,2>
PUBLIC	??E?$vec@$00F$01@glm@@QAEAAU01@XZ		; glm::vec<1,short,2>::operator++
PUBLIC	??F?$vec@$00F$01@glm@@QAEAAU01@XZ		; glm::vec<1,short,2>::operator--
PUBLIC	??E?$vec@$00F$01@glm@@QAE?AU01@H@Z		; glm::vec<1,short,2>::operator++
PUBLIC	??F?$vec@$00F$01@glm@@QAE?AU01@H@Z		; glm::vec<1,short,2>::operator--
PUBLIC	?length@?$vec@$00H$01@glm@@SAHXZ		; glm::vec<1,int,2>::length
PUBLIC	??A?$vec@$00H$01@glm@@QAEAAHH@Z			; glm::vec<1,int,2>::operator[]
PUBLIC	??A?$vec@$00H$01@glm@@QBEABHH@Z			; glm::vec<1,int,2>::operator[]
PUBLIC	??0?$vec@$00H$01@glm@@QAE@H@Z			; glm::vec<1,int,2>::vec<1,int,2>
PUBLIC	??E?$vec@$00H$01@glm@@QAEAAU01@XZ		; glm::vec<1,int,2>::operator++
PUBLIC	??F?$vec@$00H$01@glm@@QAEAAU01@XZ		; glm::vec<1,int,2>::operator--
PUBLIC	??E?$vec@$00H$01@glm@@QAE?AU01@H@Z		; glm::vec<1,int,2>::operator++
PUBLIC	??F?$vec@$00H$01@glm@@QAE?AU01@H@Z		; glm::vec<1,int,2>::operator--
PUBLIC	?length@?$vec@$00_J$01@glm@@SAHXZ		; glm::vec<1,__int64,2>::length
PUBLIC	??A?$vec@$00_J$01@glm@@QAEAA_JH@Z		; glm::vec<1,__int64,2>::operator[]
PUBLIC	??A?$vec@$00_J$01@glm@@QBEAB_JH@Z		; glm::vec<1,__int64,2>::operator[]
PUBLIC	??0?$vec@$00_J$01@glm@@QAE@_J@Z			; glm::vec<1,__int64,2>::vec<1,__int64,2>
PUBLIC	??E?$vec@$00_J$01@glm@@QAEAAU01@XZ		; glm::vec<1,__int64,2>::operator++
PUBLIC	??F?$vec@$00_J$01@glm@@QAEAAU01@XZ		; glm::vec<1,__int64,2>::operator--
PUBLIC	??E?$vec@$00_J$01@glm@@QAE?AU01@H@Z		; glm::vec<1,__int64,2>::operator++
PUBLIC	??F?$vec@$00_J$01@glm@@QAE?AU01@H@Z		; glm::vec<1,__int64,2>::operator--
PUBLIC	?length@?$vec@$00M$01@glm@@SAHXZ		; glm::vec<1,float,2>::length
PUBLIC	??A?$vec@$00M$01@glm@@QAEAAMH@Z			; glm::vec<1,float,2>::operator[]
PUBLIC	??A?$vec@$00M$01@glm@@QBEABMH@Z			; glm::vec<1,float,2>::operator[]
PUBLIC	??0?$vec@$00M$01@glm@@QAE@M@Z			; glm::vec<1,float,2>::vec<1,float,2>
PUBLIC	??E?$vec@$00M$01@glm@@QAEAAU01@XZ		; glm::vec<1,float,2>::operator++
PUBLIC	??F?$vec@$00M$01@glm@@QAEAAU01@XZ		; glm::vec<1,float,2>::operator--
PUBLIC	??E?$vec@$00M$01@glm@@QAE?AU01@H@Z		; glm::vec<1,float,2>::operator++
PUBLIC	??F?$vec@$00M$01@glm@@QAE?AU01@H@Z		; glm::vec<1,float,2>::operator--
PUBLIC	?length@?$vec@$00N$01@glm@@SAHXZ		; glm::vec<1,double,2>::length
PUBLIC	??A?$vec@$00N$01@glm@@QAEAANH@Z			; glm::vec<1,double,2>::operator[]
PUBLIC	??A?$vec@$00N$01@glm@@QBEABNH@Z			; glm::vec<1,double,2>::operator[]
PUBLIC	??0?$vec@$00N$01@glm@@QAE@N@Z			; glm::vec<1,double,2>::vec<1,double,2>
PUBLIC	??E?$vec@$00N$01@glm@@QAEAAU01@XZ		; glm::vec<1,double,2>::operator++
PUBLIC	??F?$vec@$00N$01@glm@@QAEAAU01@XZ		; glm::vec<1,double,2>::operator--
PUBLIC	??E?$vec@$00N$01@glm@@QAE?AU01@H@Z		; glm::vec<1,double,2>::operator++
PUBLIC	??F?$vec@$00N$01@glm@@QAE?AU01@H@Z		; glm::vec<1,double,2>::operator--
PUBLIC	?length@?$vec@$00E$00@glm@@SAHXZ		; glm::vec<1,unsigned char,1>::length
PUBLIC	??A?$vec@$00E$00@glm@@QAEAAEH@Z			; glm::vec<1,unsigned char,1>::operator[]
PUBLIC	??A?$vec@$00E$00@glm@@QBEABEH@Z			; glm::vec<1,unsigned char,1>::operator[]
PUBLIC	??0?$vec@$00E$00@glm@@QAE@E@Z			; glm::vec<1,unsigned char,1>::vec<1,unsigned char,1>
PUBLIC	??E?$vec@$00E$00@glm@@QAEAAU01@XZ		; glm::vec<1,unsigned char,1>::operator++
PUBLIC	??F?$vec@$00E$00@glm@@QAEAAU01@XZ		; glm::vec<1,unsigned char,1>::operator--
PUBLIC	??E?$vec@$00E$00@glm@@QAE?AU01@H@Z		; glm::vec<1,unsigned char,1>::operator++
PUBLIC	??F?$vec@$00E$00@glm@@QAE?AU01@H@Z		; glm::vec<1,unsigned char,1>::operator--
PUBLIC	?length@?$vec@$00G$00@glm@@SAHXZ		; glm::vec<1,unsigned short,1>::length
PUBLIC	??A?$vec@$00G$00@glm@@QAEAAGH@Z			; glm::vec<1,unsigned short,1>::operator[]
PUBLIC	??A?$vec@$00G$00@glm@@QBEABGH@Z			; glm::vec<1,unsigned short,1>::operator[]
PUBLIC	??0?$vec@$00G$00@glm@@QAE@G@Z			; glm::vec<1,unsigned short,1>::vec<1,unsigned short,1>
PUBLIC	??E?$vec@$00G$00@glm@@QAEAAU01@XZ		; glm::vec<1,unsigned short,1>::operator++
PUBLIC	??F?$vec@$00G$00@glm@@QAEAAU01@XZ		; glm::vec<1,unsigned short,1>::operator--
PUBLIC	??E?$vec@$00G$00@glm@@QAE?AU01@H@Z		; glm::vec<1,unsigned short,1>::operator++
PUBLIC	??F?$vec@$00G$00@glm@@QAE?AU01@H@Z		; glm::vec<1,unsigned short,1>::operator--
PUBLIC	?length@?$vec@$00I$00@glm@@SAHXZ		; glm::vec<1,unsigned int,1>::length
PUBLIC	??A?$vec@$00I$00@glm@@QAEAAIH@Z			; glm::vec<1,unsigned int,1>::operator[]
PUBLIC	??A?$vec@$00I$00@glm@@QBEABIH@Z			; glm::vec<1,unsigned int,1>::operator[]
PUBLIC	??0?$vec@$00I$00@glm@@QAE@I@Z			; glm::vec<1,unsigned int,1>::vec<1,unsigned int,1>
PUBLIC	??E?$vec@$00I$00@glm@@QAEAAU01@XZ		; glm::vec<1,unsigned int,1>::operator++
PUBLIC	??F?$vec@$00I$00@glm@@QAEAAU01@XZ		; glm::vec<1,unsigned int,1>::operator--
PUBLIC	??E?$vec@$00I$00@glm@@QAE?AU01@H@Z		; glm::vec<1,unsigned int,1>::operator++
PUBLIC	??F?$vec@$00I$00@glm@@QAE?AU01@H@Z		; glm::vec<1,unsigned int,1>::operator--
PUBLIC	?length@?$vec@$00_K$00@glm@@SAHXZ		; glm::vec<1,unsigned __int64,1>::length
PUBLIC	??A?$vec@$00_K$00@glm@@QAEAA_KH@Z		; glm::vec<1,unsigned __int64,1>::operator[]
PUBLIC	??A?$vec@$00_K$00@glm@@QBEAB_KH@Z		; glm::vec<1,unsigned __int64,1>::operator[]
PUBLIC	??0?$vec@$00_K$00@glm@@QAE@_K@Z			; glm::vec<1,unsigned __int64,1>::vec<1,unsigned __int64,1>
PUBLIC	??E?$vec@$00_K$00@glm@@QAEAAU01@XZ		; glm::vec<1,unsigned __int64,1>::operator++
PUBLIC	??F?$vec@$00_K$00@glm@@QAEAAU01@XZ		; glm::vec<1,unsigned __int64,1>::operator--
PUBLIC	??E?$vec@$00_K$00@glm@@QAE?AU01@H@Z		; glm::vec<1,unsigned __int64,1>::operator++
PUBLIC	??F?$vec@$00_K$00@glm@@QAE?AU01@H@Z		; glm::vec<1,unsigned __int64,1>::operator--
PUBLIC	?length@?$vec@$00C$00@glm@@SAHXZ		; glm::vec<1,signed char,1>::length
PUBLIC	??A?$vec@$00C$00@glm@@QAEAACH@Z			; glm::vec<1,signed char,1>::operator[]
PUBLIC	??A?$vec@$00C$00@glm@@QBEABCH@Z			; glm::vec<1,signed char,1>::operator[]
PUBLIC	??0?$vec@$00C$00@glm@@QAE@C@Z			; glm::vec<1,signed char,1>::vec<1,signed char,1>
PUBLIC	??E?$vec@$00C$00@glm@@QAEAAU01@XZ		; glm::vec<1,signed char,1>::operator++
PUBLIC	??F?$vec@$00C$00@glm@@QAEAAU01@XZ		; glm::vec<1,signed char,1>::operator--
PUBLIC	??E?$vec@$00C$00@glm@@QAE?AU01@H@Z		; glm::vec<1,signed char,1>::operator++
PUBLIC	??F?$vec@$00C$00@glm@@QAE?AU01@H@Z		; glm::vec<1,signed char,1>::operator--
PUBLIC	?length@?$vec@$00F$00@glm@@SAHXZ		; glm::vec<1,short,1>::length
PUBLIC	??A?$vec@$00F$00@glm@@QAEAAFH@Z			; glm::vec<1,short,1>::operator[]
PUBLIC	??A?$vec@$00F$00@glm@@QBEABFH@Z			; glm::vec<1,short,1>::operator[]
PUBLIC	??0?$vec@$00F$00@glm@@QAE@F@Z			; glm::vec<1,short,1>::vec<1,short,1>
PUBLIC	??E?$vec@$00F$00@glm@@QAEAAU01@XZ		; glm::vec<1,short,1>::operator++
PUBLIC	??F?$vec@$00F$00@glm@@QAEAAU01@XZ		; glm::vec<1,short,1>::operator--
PUBLIC	??E?$vec@$00F$00@glm@@QAE?AU01@H@Z		; glm::vec<1,short,1>::operator++
PUBLIC	??F?$vec@$00F$00@glm@@QAE?AU01@H@Z		; glm::vec<1,short,1>::operator--
PUBLIC	?length@?$vec@$00H$00@glm@@SAHXZ		; glm::vec<1,int,1>::length
PUBLIC	??A?$vec@$00H$00@glm@@QAEAAHH@Z			; glm::vec<1,int,1>::operator[]
PUBLIC	??A?$vec@$00H$00@glm@@QBEABHH@Z			; glm::vec<1,int,1>::operator[]
PUBLIC	??0?$vec@$00H$00@glm@@QAE@H@Z			; glm::vec<1,int,1>::vec<1,int,1>
PUBLIC	??E?$vec@$00H$00@glm@@QAEAAU01@XZ		; glm::vec<1,int,1>::operator++
PUBLIC	??F?$vec@$00H$00@glm@@QAEAAU01@XZ		; glm::vec<1,int,1>::operator--
PUBLIC	??E?$vec@$00H$00@glm@@QAE?AU01@H@Z		; glm::vec<1,int,1>::operator++
PUBLIC	??F?$vec@$00H$00@glm@@QAE?AU01@H@Z		; glm::vec<1,int,1>::operator--
PUBLIC	?length@?$vec@$00_J$00@glm@@SAHXZ		; glm::vec<1,__int64,1>::length
PUBLIC	??A?$vec@$00_J$00@glm@@QAEAA_JH@Z		; glm::vec<1,__int64,1>::operator[]
PUBLIC	??A?$vec@$00_J$00@glm@@QBEAB_JH@Z		; glm::vec<1,__int64,1>::operator[]
PUBLIC	??0?$vec@$00_J$00@glm@@QAE@_J@Z			; glm::vec<1,__int64,1>::vec<1,__int64,1>
PUBLIC	??E?$vec@$00_J$00@glm@@QAEAAU01@XZ		; glm::vec<1,__int64,1>::operator++
PUBLIC	??F?$vec@$00_J$00@glm@@QAEAAU01@XZ		; glm::vec<1,__int64,1>::operator--
PUBLIC	??E?$vec@$00_J$00@glm@@QAE?AU01@H@Z		; glm::vec<1,__int64,1>::operator++
PUBLIC	??F?$vec@$00_J$00@glm@@QAE?AU01@H@Z		; glm::vec<1,__int64,1>::operator--
PUBLIC	?length@?$vec@$00M$00@glm@@SAHXZ		; glm::vec<1,float,1>::length
PUBLIC	??A?$vec@$00M$00@glm@@QAEAAMH@Z			; glm::vec<1,float,1>::operator[]
PUBLIC	??A?$vec@$00M$00@glm@@QBEABMH@Z			; glm::vec<1,float,1>::operator[]
PUBLIC	??0?$vec@$00M$00@glm@@QAE@M@Z			; glm::vec<1,float,1>::vec<1,float,1>
PUBLIC	??E?$vec@$00M$00@glm@@QAEAAU01@XZ		; glm::vec<1,float,1>::operator++
PUBLIC	??F?$vec@$00M$00@glm@@QAEAAU01@XZ		; glm::vec<1,float,1>::operator--
PUBLIC	??E?$vec@$00M$00@glm@@QAE?AU01@H@Z		; glm::vec<1,float,1>::operator++
PUBLIC	??F?$vec@$00M$00@glm@@QAE?AU01@H@Z		; glm::vec<1,float,1>::operator--
PUBLIC	?length@?$vec@$00N$00@glm@@SAHXZ		; glm::vec<1,double,1>::length
PUBLIC	??A?$vec@$00N$00@glm@@QAEAANH@Z			; glm::vec<1,double,1>::operator[]
PUBLIC	??A?$vec@$00N$00@glm@@QBEABNH@Z			; glm::vec<1,double,1>::operator[]
PUBLIC	??0?$vec@$00N$00@glm@@QAE@N@Z			; glm::vec<1,double,1>::vec<1,double,1>
PUBLIC	??E?$vec@$00N$00@glm@@QAEAAU01@XZ		; glm::vec<1,double,1>::operator++
PUBLIC	??F?$vec@$00N$00@glm@@QAEAAU01@XZ		; glm::vec<1,double,1>::operator--
PUBLIC	??E?$vec@$00N$00@glm@@QAE?AU01@H@Z		; glm::vec<1,double,1>::operator++
PUBLIC	??F?$vec@$00N$00@glm@@QAE?AU01@H@Z		; glm::vec<1,double,1>::operator--
PUBLIC	?length@?$vec@$00E$0A@@glm@@SAHXZ		; glm::vec<1,unsigned char,0>::length
PUBLIC	??A?$vec@$00E$0A@@glm@@QAEAAEH@Z		; glm::vec<1,unsigned char,0>::operator[]
PUBLIC	??A?$vec@$00E$0A@@glm@@QBEABEH@Z		; glm::vec<1,unsigned char,0>::operator[]
PUBLIC	??0?$vec@$00E$0A@@glm@@QAE@E@Z			; glm::vec<1,unsigned char,0>::vec<1,unsigned char,0>
PUBLIC	??E?$vec@$00E$0A@@glm@@QAEAAU01@XZ		; glm::vec<1,unsigned char,0>::operator++
PUBLIC	??F?$vec@$00E$0A@@glm@@QAEAAU01@XZ		; glm::vec<1,unsigned char,0>::operator--
PUBLIC	??E?$vec@$00E$0A@@glm@@QAE?AU01@H@Z		; glm::vec<1,unsigned char,0>::operator++
PUBLIC	??F?$vec@$00E$0A@@glm@@QAE?AU01@H@Z		; glm::vec<1,unsigned char,0>::operator--
PUBLIC	?length@?$vec@$00G$0A@@glm@@SAHXZ		; glm::vec<1,unsigned short,0>::length
PUBLIC	??A?$vec@$00G$0A@@glm@@QAEAAGH@Z		; glm::vec<1,unsigned short,0>::operator[]
PUBLIC	??A?$vec@$00G$0A@@glm@@QBEABGH@Z		; glm::vec<1,unsigned short,0>::operator[]
PUBLIC	??0?$vec@$00G$0A@@glm@@QAE@G@Z			; glm::vec<1,unsigned short,0>::vec<1,unsigned short,0>
PUBLIC	??E?$vec@$00G$0A@@glm@@QAEAAU01@XZ		; glm::vec<1,unsigned short,0>::operator++
PUBLIC	??F?$vec@$00G$0A@@glm@@QAEAAU01@XZ		; glm::vec<1,unsigned short,0>::operator--
PUBLIC	??E?$vec@$00G$0A@@glm@@QAE?AU01@H@Z		; glm::vec<1,unsigned short,0>::operator++
PUBLIC	??F?$vec@$00G$0A@@glm@@QAE?AU01@H@Z		; glm::vec<1,unsigned short,0>::operator--
PUBLIC	?length@?$vec@$00I$0A@@glm@@SAHXZ		; glm::vec<1,unsigned int,0>::length
PUBLIC	??A?$vec@$00I$0A@@glm@@QAEAAIH@Z		; glm::vec<1,unsigned int,0>::operator[]
PUBLIC	??A?$vec@$00I$0A@@glm@@QBEABIH@Z		; glm::vec<1,unsigned int,0>::operator[]
PUBLIC	??0?$vec@$00I$0A@@glm@@QAE@I@Z			; glm::vec<1,unsigned int,0>::vec<1,unsigned int,0>
PUBLIC	??E?$vec@$00I$0A@@glm@@QAEAAU01@XZ		; glm::vec<1,unsigned int,0>::operator++
PUBLIC	??F?$vec@$00I$0A@@glm@@QAEAAU01@XZ		; glm::vec<1,unsigned int,0>::operator--
PUBLIC	??E?$vec@$00I$0A@@glm@@QAE?AU01@H@Z		; glm::vec<1,unsigned int,0>::operator++
PUBLIC	??F?$vec@$00I$0A@@glm@@QAE?AU01@H@Z		; glm::vec<1,unsigned int,0>::operator--
PUBLIC	?length@?$vec@$00_K$0A@@glm@@SAHXZ		; glm::vec<1,unsigned __int64,0>::length
PUBLIC	??A?$vec@$00_K$0A@@glm@@QAEAA_KH@Z		; glm::vec<1,unsigned __int64,0>::operator[]
PUBLIC	??A?$vec@$00_K$0A@@glm@@QBEAB_KH@Z		; glm::vec<1,unsigned __int64,0>::operator[]
PUBLIC	??0?$vec@$00_K$0A@@glm@@QAE@_K@Z		; glm::vec<1,unsigned __int64,0>::vec<1,unsigned __int64,0>
PUBLIC	??E?$vec@$00_K$0A@@glm@@QAEAAU01@XZ		; glm::vec<1,unsigned __int64,0>::operator++
PUBLIC	??F?$vec@$00_K$0A@@glm@@QAEAAU01@XZ		; glm::vec<1,unsigned __int64,0>::operator--
PUBLIC	??E?$vec@$00_K$0A@@glm@@QAE?AU01@H@Z		; glm::vec<1,unsigned __int64,0>::operator++
PUBLIC	??F?$vec@$00_K$0A@@glm@@QAE?AU01@H@Z		; glm::vec<1,unsigned __int64,0>::operator--
PUBLIC	?length@?$vec@$00C$0A@@glm@@SAHXZ		; glm::vec<1,signed char,0>::length
PUBLIC	??A?$vec@$00C$0A@@glm@@QAEAACH@Z		; glm::vec<1,signed char,0>::operator[]
PUBLIC	??A?$vec@$00C$0A@@glm@@QBEABCH@Z		; glm::vec<1,signed char,0>::operator[]
PUBLIC	??0?$vec@$00C$0A@@glm@@QAE@C@Z			; glm::vec<1,signed char,0>::vec<1,signed char,0>
PUBLIC	??E?$vec@$00C$0A@@glm@@QAEAAU01@XZ		; glm::vec<1,signed char,0>::operator++
PUBLIC	??F?$vec@$00C$0A@@glm@@QAEAAU01@XZ		; glm::vec<1,signed char,0>::operator--
PUBLIC	??E?$vec@$00C$0A@@glm@@QAE?AU01@H@Z		; glm::vec<1,signed char,0>::operator++
PUBLIC	??F?$vec@$00C$0A@@glm@@QAE?AU01@H@Z		; glm::vec<1,signed char,0>::operator--
PUBLIC	?length@?$vec@$00F$0A@@glm@@SAHXZ		; glm::vec<1,short,0>::length
PUBLIC	??A?$vec@$00F$0A@@glm@@QAEAAFH@Z		; glm::vec<1,short,0>::operator[]
PUBLIC	??A?$vec@$00F$0A@@glm@@QBEABFH@Z		; glm::vec<1,short,0>::operator[]
PUBLIC	??0?$vec@$00F$0A@@glm@@QAE@F@Z			; glm::vec<1,short,0>::vec<1,short,0>
PUBLIC	??E?$vec@$00F$0A@@glm@@QAEAAU01@XZ		; glm::vec<1,short,0>::operator++
PUBLIC	??F?$vec@$00F$0A@@glm@@QAEAAU01@XZ		; glm::vec<1,short,0>::operator--
PUBLIC	??E?$vec@$00F$0A@@glm@@QAE?AU01@H@Z		; glm::vec<1,short,0>::operator++
PUBLIC	??F?$vec@$00F$0A@@glm@@QAE?AU01@H@Z		; glm::vec<1,short,0>::operator--
PUBLIC	?length@?$vec@$00H$0A@@glm@@SAHXZ		; glm::vec<1,int,0>::length
PUBLIC	??A?$vec@$00H$0A@@glm@@QAEAAHH@Z		; glm::vec<1,int,0>::operator[]
PUBLIC	??A?$vec@$00H$0A@@glm@@QBEABHH@Z		; glm::vec<1,int,0>::operator[]
PUBLIC	??0?$vec@$00H$0A@@glm@@QAE@H@Z			; glm::vec<1,int,0>::vec<1,int,0>
PUBLIC	??E?$vec@$00H$0A@@glm@@QAEAAU01@XZ		; glm::vec<1,int,0>::operator++
PUBLIC	??F?$vec@$00H$0A@@glm@@QAEAAU01@XZ		; glm::vec<1,int,0>::operator--
PUBLIC	??E?$vec@$00H$0A@@glm@@QAE?AU01@H@Z		; glm::vec<1,int,0>::operator++
PUBLIC	??F?$vec@$00H$0A@@glm@@QAE?AU01@H@Z		; glm::vec<1,int,0>::operator--
PUBLIC	?length@?$vec@$00_J$0A@@glm@@SAHXZ		; glm::vec<1,__int64,0>::length
PUBLIC	??A?$vec@$00_J$0A@@glm@@QAEAA_JH@Z		; glm::vec<1,__int64,0>::operator[]
PUBLIC	??A?$vec@$00_J$0A@@glm@@QBEAB_JH@Z		; glm::vec<1,__int64,0>::operator[]
PUBLIC	??0?$vec@$00_J$0A@@glm@@QAE@_J@Z		; glm::vec<1,__int64,0>::vec<1,__int64,0>
PUBLIC	??E?$vec@$00_J$0A@@glm@@QAEAAU01@XZ		; glm::vec<1,__int64,0>::operator++
PUBLIC	??F?$vec@$00_J$0A@@glm@@QAEAAU01@XZ		; glm::vec<1,__int64,0>::operator--
PUBLIC	??E?$vec@$00_J$0A@@glm@@QAE?AU01@H@Z		; glm::vec<1,__int64,0>::operator++
PUBLIC	??F?$vec@$00_J$0A@@glm@@QAE?AU01@H@Z		; glm::vec<1,__int64,0>::operator--
PUBLIC	?length@?$vec@$00M$0A@@glm@@SAHXZ		; glm::vec<1,float,0>::length
PUBLIC	??A?$vec@$00M$0A@@glm@@QAEAAMH@Z		; glm::vec<1,float,0>::operator[]
PUBLIC	??A?$vec@$00M$0A@@glm@@QBEABMH@Z		; glm::vec<1,float,0>::operator[]
PUBLIC	??0?$vec@$00M$0A@@glm@@QAE@M@Z			; glm::vec<1,float,0>::vec<1,float,0>
PUBLIC	??E?$vec@$00M$0A@@glm@@QAEAAU01@XZ		; glm::vec<1,float,0>::operator++
PUBLIC	??F?$vec@$00M$0A@@glm@@QAEAAU01@XZ		; glm::vec<1,float,0>::operator--
PUBLIC	??E?$vec@$00M$0A@@glm@@QAE?AU01@H@Z		; glm::vec<1,float,0>::operator++
PUBLIC	??F?$vec@$00M$0A@@glm@@QAE?AU01@H@Z		; glm::vec<1,float,0>::operator--
PUBLIC	?length@?$vec@$00N$0A@@glm@@SAHXZ		; glm::vec<1,double,0>::length
PUBLIC	??A?$vec@$00N$0A@@glm@@QAEAANH@Z		; glm::vec<1,double,0>::operator[]
PUBLIC	??A?$vec@$00N$0A@@glm@@QBEABNH@Z		; glm::vec<1,double,0>::operator[]
PUBLIC	??0?$vec@$00N$0A@@glm@@QAE@N@Z			; glm::vec<1,double,0>::vec<1,double,0>
PUBLIC	??E?$vec@$00N$0A@@glm@@QAEAAU01@XZ		; glm::vec<1,double,0>::operator++
PUBLIC	??F?$vec@$00N$0A@@glm@@QAEAAU01@XZ		; glm::vec<1,double,0>::operator--
PUBLIC	??E?$vec@$00N$0A@@glm@@QAE?AU01@H@Z		; glm::vec<1,double,0>::operator++
PUBLIC	??F?$vec@$00N$0A@@glm@@QAE?AU01@H@Z		; glm::vec<1,double,0>::operator--
PUBLIC	?length@?$vec@$01E$01@glm@@SAHXZ		; glm::vec<2,unsigned char,2>::length
PUBLIC	??A?$vec@$01E$01@glm@@QAEAAEH@Z			; glm::vec<2,unsigned char,2>::operator[]
PUBLIC	??A?$vec@$01E$01@glm@@QBEABEH@Z			; glm::vec<2,unsigned char,2>::operator[]
PUBLIC	??0?$vec@$01E$01@glm@@QAE@E@Z			; glm::vec<2,unsigned char,2>::vec<2,unsigned char,2>
PUBLIC	??0?$vec@$01E$01@glm@@QAE@EE@Z			; glm::vec<2,unsigned char,2>::vec<2,unsigned char,2>
PUBLIC	??E?$vec@$01E$01@glm@@QAEAAU01@XZ		; glm::vec<2,unsigned char,2>::operator++
PUBLIC	??F?$vec@$01E$01@glm@@QAEAAU01@XZ		; glm::vec<2,unsigned char,2>::operator--
PUBLIC	??E?$vec@$01E$01@glm@@QAE?AU01@H@Z		; glm::vec<2,unsigned char,2>::operator++
PUBLIC	??F?$vec@$01E$01@glm@@QAE?AU01@H@Z		; glm::vec<2,unsigned char,2>::operator--
PUBLIC	?length@?$vec@$01G$01@glm@@SAHXZ		; glm::vec<2,unsigned short,2>::length
PUBLIC	??A?$vec@$01G$01@glm@@QAEAAGH@Z			; glm::vec<2,unsigned short,2>::operator[]
PUBLIC	??A?$vec@$01G$01@glm@@QBEABGH@Z			; glm::vec<2,unsigned short,2>::operator[]
PUBLIC	??0?$vec@$01G$01@glm@@QAE@G@Z			; glm::vec<2,unsigned short,2>::vec<2,unsigned short,2>
PUBLIC	??0?$vec@$01G$01@glm@@QAE@GG@Z			; glm::vec<2,unsigned short,2>::vec<2,unsigned short,2>
PUBLIC	??E?$vec@$01G$01@glm@@QAEAAU01@XZ		; glm::vec<2,unsigned short,2>::operator++
PUBLIC	??F?$vec@$01G$01@glm@@QAEAAU01@XZ		; glm::vec<2,unsigned short,2>::operator--
PUBLIC	??E?$vec@$01G$01@glm@@QAE?AU01@H@Z		; glm::vec<2,unsigned short,2>::operator++
PUBLIC	??F?$vec@$01G$01@glm@@QAE?AU01@H@Z		; glm::vec<2,unsigned short,2>::operator--
PUBLIC	?length@?$vec@$01I$01@glm@@SAHXZ		; glm::vec<2,unsigned int,2>::length
PUBLIC	??A?$vec@$01I$01@glm@@QAEAAIH@Z			; glm::vec<2,unsigned int,2>::operator[]
PUBLIC	??A?$vec@$01I$01@glm@@QBEABIH@Z			; glm::vec<2,unsigned int,2>::operator[]
PUBLIC	??0?$vec@$01I$01@glm@@QAE@I@Z			; glm::vec<2,unsigned int,2>::vec<2,unsigned int,2>
PUBLIC	??0?$vec@$01I$01@glm@@QAE@II@Z			; glm::vec<2,unsigned int,2>::vec<2,unsigned int,2>
PUBLIC	??E?$vec@$01I$01@glm@@QAEAAU01@XZ		; glm::vec<2,unsigned int,2>::operator++
PUBLIC	??F?$vec@$01I$01@glm@@QAEAAU01@XZ		; glm::vec<2,unsigned int,2>::operator--
PUBLIC	??E?$vec@$01I$01@glm@@QAE?AU01@H@Z		; glm::vec<2,unsigned int,2>::operator++
PUBLIC	??F?$vec@$01I$01@glm@@QAE?AU01@H@Z		; glm::vec<2,unsigned int,2>::operator--
PUBLIC	?length@?$vec@$01_K$01@glm@@SAHXZ		; glm::vec<2,unsigned __int64,2>::length
PUBLIC	??A?$vec@$01_K$01@glm@@QAEAA_KH@Z		; glm::vec<2,unsigned __int64,2>::operator[]
PUBLIC	??A?$vec@$01_K$01@glm@@QBEAB_KH@Z		; glm::vec<2,unsigned __int64,2>::operator[]
PUBLIC	??0?$vec@$01_K$01@glm@@QAE@_K@Z			; glm::vec<2,unsigned __int64,2>::vec<2,unsigned __int64,2>
PUBLIC	??0?$vec@$01_K$01@glm@@QAE@_K0@Z		; glm::vec<2,unsigned __int64,2>::vec<2,unsigned __int64,2>
PUBLIC	??E?$vec@$01_K$01@glm@@QAEAAU01@XZ		; glm::vec<2,unsigned __int64,2>::operator++
PUBLIC	??F?$vec@$01_K$01@glm@@QAEAAU01@XZ		; glm::vec<2,unsigned __int64,2>::operator--
PUBLIC	??E?$vec@$01_K$01@glm@@QAE?AU01@H@Z		; glm::vec<2,unsigned __int64,2>::operator++
PUBLIC	??F?$vec@$01_K$01@glm@@QAE?AU01@H@Z		; glm::vec<2,unsigned __int64,2>::operator--
PUBLIC	?length@?$vec@$01C$01@glm@@SAHXZ		; glm::vec<2,signed char,2>::length
PUBLIC	??A?$vec@$01C$01@glm@@QAEAACH@Z			; glm::vec<2,signed char,2>::operator[]
PUBLIC	??A?$vec@$01C$01@glm@@QBEABCH@Z			; glm::vec<2,signed char,2>::operator[]
PUBLIC	??0?$vec@$01C$01@glm@@QAE@C@Z			; glm::vec<2,signed char,2>::vec<2,signed char,2>
PUBLIC	??0?$vec@$01C$01@glm@@QAE@CC@Z			; glm::vec<2,signed char,2>::vec<2,signed char,2>
PUBLIC	??E?$vec@$01C$01@glm@@QAEAAU01@XZ		; glm::vec<2,signed char,2>::operator++
PUBLIC	??F?$vec@$01C$01@glm@@QAEAAU01@XZ		; glm::vec<2,signed char,2>::operator--
PUBLIC	??E?$vec@$01C$01@glm@@QAE?AU01@H@Z		; glm::vec<2,signed char,2>::operator++
PUBLIC	??F?$vec@$01C$01@glm@@QAE?AU01@H@Z		; glm::vec<2,signed char,2>::operator--
PUBLIC	?length@?$vec@$01F$01@glm@@SAHXZ		; glm::vec<2,short,2>::length
PUBLIC	??A?$vec@$01F$01@glm@@QAEAAFH@Z			; glm::vec<2,short,2>::operator[]
PUBLIC	??A?$vec@$01F$01@glm@@QBEABFH@Z			; glm::vec<2,short,2>::operator[]
PUBLIC	??0?$vec@$01F$01@glm@@QAE@F@Z			; glm::vec<2,short,2>::vec<2,short,2>
PUBLIC	??0?$vec@$01F$01@glm@@QAE@FF@Z			; glm::vec<2,short,2>::vec<2,short,2>
PUBLIC	??E?$vec@$01F$01@glm@@QAEAAU01@XZ		; glm::vec<2,short,2>::operator++
PUBLIC	??F?$vec@$01F$01@glm@@QAEAAU01@XZ		; glm::vec<2,short,2>::operator--
PUBLIC	??E?$vec@$01F$01@glm@@QAE?AU01@H@Z		; glm::vec<2,short,2>::operator++
PUBLIC	??F?$vec@$01F$01@glm@@QAE?AU01@H@Z		; glm::vec<2,short,2>::operator--
PUBLIC	?length@?$vec@$01H$01@glm@@SAHXZ		; glm::vec<2,int,2>::length
PUBLIC	??A?$vec@$01H$01@glm@@QAEAAHH@Z			; glm::vec<2,int,2>::operator[]
PUBLIC	??A?$vec@$01H$01@glm@@QBEABHH@Z			; glm::vec<2,int,2>::operator[]
PUBLIC	??0?$vec@$01H$01@glm@@QAE@H@Z			; glm::vec<2,int,2>::vec<2,int,2>
PUBLIC	??0?$vec@$01H$01@glm@@QAE@HH@Z			; glm::vec<2,int,2>::vec<2,int,2>
PUBLIC	??E?$vec@$01H$01@glm@@QAEAAU01@XZ		; glm::vec<2,int,2>::operator++
PUBLIC	??F?$vec@$01H$01@glm@@QAEAAU01@XZ		; glm::vec<2,int,2>::operator--
PUBLIC	??E?$vec@$01H$01@glm@@QAE?AU01@H@Z		; glm::vec<2,int,2>::operator++
PUBLIC	??F?$vec@$01H$01@glm@@QAE?AU01@H@Z		; glm::vec<2,int,2>::operator--
PUBLIC	?length@?$vec@$01_J$01@glm@@SAHXZ		; glm::vec<2,__int64,2>::length
PUBLIC	??A?$vec@$01_J$01@glm@@QAEAA_JH@Z		; glm::vec<2,__int64,2>::operator[]
PUBLIC	??A?$vec@$01_J$01@glm@@QBEAB_JH@Z		; glm::vec<2,__int64,2>::operator[]
PUBLIC	??0?$vec@$01_J$01@glm@@QAE@_J@Z			; glm::vec<2,__int64,2>::vec<2,__int64,2>
PUBLIC	??0?$vec@$01_J$01@glm@@QAE@_J0@Z		; glm::vec<2,__int64,2>::vec<2,__int64,2>
PUBLIC	??E?$vec@$01_J$01@glm@@QAEAAU01@XZ		; glm::vec<2,__int64,2>::operator++
PUBLIC	??F?$vec@$01_J$01@glm@@QAEAAU01@XZ		; glm::vec<2,__int64,2>::operator--
PUBLIC	??E?$vec@$01_J$01@glm@@QAE?AU01@H@Z		; glm::vec<2,__int64,2>::operator++
PUBLIC	??F?$vec@$01_J$01@glm@@QAE?AU01@H@Z		; glm::vec<2,__int64,2>::operator--
PUBLIC	?length@?$vec@$01M$01@glm@@SAHXZ		; glm::vec<2,float,2>::length
PUBLIC	??A?$vec@$01M$01@glm@@QAEAAMH@Z			; glm::vec<2,float,2>::operator[]
PUBLIC	??A?$vec@$01M$01@glm@@QBEABMH@Z			; glm::vec<2,float,2>::operator[]
PUBLIC	??0?$vec@$01M$01@glm@@QAE@M@Z			; glm::vec<2,float,2>::vec<2,float,2>
PUBLIC	??0?$vec@$01M$01@glm@@QAE@MM@Z			; glm::vec<2,float,2>::vec<2,float,2>
PUBLIC	??E?$vec@$01M$01@glm@@QAEAAU01@XZ		; glm::vec<2,float,2>::operator++
PUBLIC	??F?$vec@$01M$01@glm@@QAEAAU01@XZ		; glm::vec<2,float,2>::operator--
PUBLIC	??E?$vec@$01M$01@glm@@QAE?AU01@H@Z		; glm::vec<2,float,2>::operator++
PUBLIC	??F?$vec@$01M$01@glm@@QAE?AU01@H@Z		; glm::vec<2,float,2>::operator--
PUBLIC	?length@?$vec@$01N$01@glm@@SAHXZ		; glm::vec<2,double,2>::length
PUBLIC	??A?$vec@$01N$01@glm@@QAEAANH@Z			; glm::vec<2,double,2>::operator[]
PUBLIC	??A?$vec@$01N$01@glm@@QBEABNH@Z			; glm::vec<2,double,2>::operator[]
PUBLIC	??0?$vec@$01N$01@glm@@QAE@N@Z			; glm::vec<2,double,2>::vec<2,double,2>
PUBLIC	??0?$vec@$01N$01@glm@@QAE@NN@Z			; glm::vec<2,double,2>::vec<2,double,2>
PUBLIC	??E?$vec@$01N$01@glm@@QAEAAU01@XZ		; glm::vec<2,double,2>::operator++
PUBLIC	??F?$vec@$01N$01@glm@@QAEAAU01@XZ		; glm::vec<2,double,2>::operator--
PUBLIC	??E?$vec@$01N$01@glm@@QAE?AU01@H@Z		; glm::vec<2,double,2>::operator++
PUBLIC	??F?$vec@$01N$01@glm@@QAE?AU01@H@Z		; glm::vec<2,double,2>::operator--
PUBLIC	?length@?$vec@$01E$00@glm@@SAHXZ		; glm::vec<2,unsigned char,1>::length
PUBLIC	??A?$vec@$01E$00@glm@@QAEAAEH@Z			; glm::vec<2,unsigned char,1>::operator[]
PUBLIC	??A?$vec@$01E$00@glm@@QBEABEH@Z			; glm::vec<2,unsigned char,1>::operator[]
PUBLIC	??0?$vec@$01E$00@glm@@QAE@E@Z			; glm::vec<2,unsigned char,1>::vec<2,unsigned char,1>
PUBLIC	??0?$vec@$01E$00@glm@@QAE@EE@Z			; glm::vec<2,unsigned char,1>::vec<2,unsigned char,1>
PUBLIC	??E?$vec@$01E$00@glm@@QAEAAU01@XZ		; glm::vec<2,unsigned char,1>::operator++
PUBLIC	??F?$vec@$01E$00@glm@@QAEAAU01@XZ		; glm::vec<2,unsigned char,1>::operator--
PUBLIC	??E?$vec@$01E$00@glm@@QAE?AU01@H@Z		; glm::vec<2,unsigned char,1>::operator++
PUBLIC	??F?$vec@$01E$00@glm@@QAE?AU01@H@Z		; glm::vec<2,unsigned char,1>::operator--
PUBLIC	?length@?$vec@$01G$00@glm@@SAHXZ		; glm::vec<2,unsigned short,1>::length
PUBLIC	??A?$vec@$01G$00@glm@@QAEAAGH@Z			; glm::vec<2,unsigned short,1>::operator[]
PUBLIC	??A?$vec@$01G$00@glm@@QBEABGH@Z			; glm::vec<2,unsigned short,1>::operator[]
PUBLIC	??0?$vec@$01G$00@glm@@QAE@G@Z			; glm::vec<2,unsigned short,1>::vec<2,unsigned short,1>
PUBLIC	??0?$vec@$01G$00@glm@@QAE@GG@Z			; glm::vec<2,unsigned short,1>::vec<2,unsigned short,1>
PUBLIC	??E?$vec@$01G$00@glm@@QAEAAU01@XZ		; glm::vec<2,unsigned short,1>::operator++
PUBLIC	??F?$vec@$01G$00@glm@@QAEAAU01@XZ		; glm::vec<2,unsigned short,1>::operator--
PUBLIC	??E?$vec@$01G$00@glm@@QAE?AU01@H@Z		; glm::vec<2,unsigned short,1>::operator++
PUBLIC	??F?$vec@$01G$00@glm@@QAE?AU01@H@Z		; glm::vec<2,unsigned short,1>::operator--
PUBLIC	?length@?$vec@$01I$00@glm@@SAHXZ		; glm::vec<2,unsigned int,1>::length
PUBLIC	??A?$vec@$01I$00@glm@@QAEAAIH@Z			; glm::vec<2,unsigned int,1>::operator[]
PUBLIC	??A?$vec@$01I$00@glm@@QBEABIH@Z			; glm::vec<2,unsigned int,1>::operator[]
PUBLIC	??0?$vec@$01I$00@glm@@QAE@I@Z			; glm::vec<2,unsigned int,1>::vec<2,unsigned int,1>
PUBLIC	??0?$vec@$01I$00@glm@@QAE@II@Z			; glm::vec<2,unsigned int,1>::vec<2,unsigned int,1>
PUBLIC	??E?$vec@$01I$00@glm@@QAEAAU01@XZ		; glm::vec<2,unsigned int,1>::operator++
PUBLIC	??F?$vec@$01I$00@glm@@QAEAAU01@XZ		; glm::vec<2,unsigned int,1>::operator--
PUBLIC	??E?$vec@$01I$00@glm@@QAE?AU01@H@Z		; glm::vec<2,unsigned int,1>::operator++
PUBLIC	??F?$vec@$01I$00@glm@@QAE?AU01@H@Z		; glm::vec<2,unsigned int,1>::operator--
PUBLIC	?length@?$vec@$01_K$00@glm@@SAHXZ		; glm::vec<2,unsigned __int64,1>::length
PUBLIC	??A?$vec@$01_K$00@glm@@QAEAA_KH@Z		; glm::vec<2,unsigned __int64,1>::operator[]
PUBLIC	??A?$vec@$01_K$00@glm@@QBEAB_KH@Z		; glm::vec<2,unsigned __int64,1>::operator[]
PUBLIC	??0?$vec@$01_K$00@glm@@QAE@_K@Z			; glm::vec<2,unsigned __int64,1>::vec<2,unsigned __int64,1>
PUBLIC	??0?$vec@$01_K$00@glm@@QAE@_K0@Z		; glm::vec<2,unsigned __int64,1>::vec<2,unsigned __int64,1>
PUBLIC	??E?$vec@$01_K$00@glm@@QAEAAU01@XZ		; glm::vec<2,unsigned __int64,1>::operator++
PUBLIC	??F?$vec@$01_K$00@glm@@QAEAAU01@XZ		; glm::vec<2,unsigned __int64,1>::operator--
PUBLIC	??E?$vec@$01_K$00@glm@@QAE?AU01@H@Z		; glm::vec<2,unsigned __int64,1>::operator++
PUBLIC	??F?$vec@$01_K$00@glm@@QAE?AU01@H@Z		; glm::vec<2,unsigned __int64,1>::operator--
PUBLIC	?length@?$vec@$01C$00@glm@@SAHXZ		; glm::vec<2,signed char,1>::length
PUBLIC	??A?$vec@$01C$00@glm@@QAEAACH@Z			; glm::vec<2,signed char,1>::operator[]
PUBLIC	??A?$vec@$01C$00@glm@@QBEABCH@Z			; glm::vec<2,signed char,1>::operator[]
PUBLIC	??0?$vec@$01C$00@glm@@QAE@C@Z			; glm::vec<2,signed char,1>::vec<2,signed char,1>
PUBLIC	??0?$vec@$01C$00@glm@@QAE@CC@Z			; glm::vec<2,signed char,1>::vec<2,signed char,1>
PUBLIC	??E?$vec@$01C$00@glm@@QAEAAU01@XZ		; glm::vec<2,signed char,1>::operator++
PUBLIC	??F?$vec@$01C$00@glm@@QAEAAU01@XZ		; glm::vec<2,signed char,1>::operator--
PUBLIC	??E?$vec@$01C$00@glm@@QAE?AU01@H@Z		; glm::vec<2,signed char,1>::operator++
PUBLIC	??F?$vec@$01C$00@glm@@QAE?AU01@H@Z		; glm::vec<2,signed char,1>::operator--
PUBLIC	?length@?$vec@$01F$00@glm@@SAHXZ		; glm::vec<2,short,1>::length
PUBLIC	??A?$vec@$01F$00@glm@@QAEAAFH@Z			; glm::vec<2,short,1>::operator[]
PUBLIC	??A?$vec@$01F$00@glm@@QBEABFH@Z			; glm::vec<2,short,1>::operator[]
PUBLIC	??0?$vec@$01F$00@glm@@QAE@F@Z			; glm::vec<2,short,1>::vec<2,short,1>
PUBLIC	??0?$vec@$01F$00@glm@@QAE@FF@Z			; glm::vec<2,short,1>::vec<2,short,1>
PUBLIC	??E?$vec@$01F$00@glm@@QAEAAU01@XZ		; glm::vec<2,short,1>::operator++
PUBLIC	??F?$vec@$01F$00@glm@@QAEAAU01@XZ		; glm::vec<2,short,1>::operator--
PUBLIC	??E?$vec@$01F$00@glm@@QAE?AU01@H@Z		; glm::vec<2,short,1>::operator++
PUBLIC	??F?$vec@$01F$00@glm@@QAE?AU01@H@Z		; glm::vec<2,short,1>::operator--
PUBLIC	?length@?$vec@$01H$00@glm@@SAHXZ		; glm::vec<2,int,1>::length
PUBLIC	??A?$vec@$01H$00@glm@@QAEAAHH@Z			; glm::vec<2,int,1>::operator[]
PUBLIC	??A?$vec@$01H$00@glm@@QBEABHH@Z			; glm::vec<2,int,1>::operator[]
PUBLIC	??0?$vec@$01H$00@glm@@QAE@H@Z			; glm::vec<2,int,1>::vec<2,int,1>
PUBLIC	??0?$vec@$01H$00@glm@@QAE@HH@Z			; glm::vec<2,int,1>::vec<2,int,1>
PUBLIC	??E?$vec@$01H$00@glm@@QAEAAU01@XZ		; glm::vec<2,int,1>::operator++
PUBLIC	??F?$vec@$01H$00@glm@@QAEAAU01@XZ		; glm::vec<2,int,1>::operator--
PUBLIC	??E?$vec@$01H$00@glm@@QAE?AU01@H@Z		; glm::vec<2,int,1>::operator++
PUBLIC	??F?$vec@$01H$00@glm@@QAE?AU01@H@Z		; glm::vec<2,int,1>::operator--
PUBLIC	?length@?$vec@$01_J$00@glm@@SAHXZ		; glm::vec<2,__int64,1>::length
PUBLIC	??A?$vec@$01_J$00@glm@@QAEAA_JH@Z		; glm::vec<2,__int64,1>::operator[]
PUBLIC	??A?$vec@$01_J$00@glm@@QBEAB_JH@Z		; glm::vec<2,__int64,1>::operator[]
PUBLIC	??0?$vec@$01_J$00@glm@@QAE@_J@Z			; glm::vec<2,__int64,1>::vec<2,__int64,1>
PUBLIC	??0?$vec@$01_J$00@glm@@QAE@_J0@Z		; glm::vec<2,__int64,1>::vec<2,__int64,1>
PUBLIC	??E?$vec@$01_J$00@glm@@QAEAAU01@XZ		; glm::vec<2,__int64,1>::operator++
PUBLIC	??F?$vec@$01_J$00@glm@@QAEAAU01@XZ		; glm::vec<2,__int64,1>::operator--
PUBLIC	??E?$vec@$01_J$00@glm@@QAE?AU01@H@Z		; glm::vec<2,__int64,1>::operator++
PUBLIC	??F?$vec@$01_J$00@glm@@QAE?AU01@H@Z		; glm::vec<2,__int64,1>::operator--
PUBLIC	?length@?$vec@$01M$00@glm@@SAHXZ		; glm::vec<2,float,1>::length
PUBLIC	??A?$vec@$01M$00@glm@@QAEAAMH@Z			; glm::vec<2,float,1>::operator[]
PUBLIC	??A?$vec@$01M$00@glm@@QBEABMH@Z			; glm::vec<2,float,1>::operator[]
PUBLIC	??0?$vec@$01M$00@glm@@QAE@M@Z			; glm::vec<2,float,1>::vec<2,float,1>
PUBLIC	??0?$vec@$01M$00@glm@@QAE@MM@Z			; glm::vec<2,float,1>::vec<2,float,1>
PUBLIC	??E?$vec@$01M$00@glm@@QAEAAU01@XZ		; glm::vec<2,float,1>::operator++
PUBLIC	??F?$vec@$01M$00@glm@@QAEAAU01@XZ		; glm::vec<2,float,1>::operator--
PUBLIC	??E?$vec@$01M$00@glm@@QAE?AU01@H@Z		; glm::vec<2,float,1>::operator++
PUBLIC	??F?$vec@$01M$00@glm@@QAE?AU01@H@Z		; glm::vec<2,float,1>::operator--
PUBLIC	?length@?$vec@$01N$00@glm@@SAHXZ		; glm::vec<2,double,1>::length
PUBLIC	??A?$vec@$01N$00@glm@@QAEAANH@Z			; glm::vec<2,double,1>::operator[]
PUBLIC	??A?$vec@$01N$00@glm@@QBEABNH@Z			; glm::vec<2,double,1>::operator[]
PUBLIC	??0?$vec@$01N$00@glm@@QAE@N@Z			; glm::vec<2,double,1>::vec<2,double,1>
PUBLIC	??0?$vec@$01N$00@glm@@QAE@NN@Z			; glm::vec<2,double,1>::vec<2,double,1>
PUBLIC	??E?$vec@$01N$00@glm@@QAEAAU01@XZ		; glm::vec<2,double,1>::operator++
PUBLIC	??F?$vec@$01N$00@glm@@QAEAAU01@XZ		; glm::vec<2,double,1>::operator--
PUBLIC	??E?$vec@$01N$00@glm@@QAE?AU01@H@Z		; glm::vec<2,double,1>::operator++
PUBLIC	??F?$vec@$01N$00@glm@@QAE?AU01@H@Z		; glm::vec<2,double,1>::operator--
PUBLIC	?length@?$vec@$01E$0A@@glm@@SAHXZ		; glm::vec<2,unsigned char,0>::length
PUBLIC	??A?$vec@$01E$0A@@glm@@QAEAAEH@Z		; glm::vec<2,unsigned char,0>::operator[]
PUBLIC	??A?$vec@$01E$0A@@glm@@QBEABEH@Z		; glm::vec<2,unsigned char,0>::operator[]
PUBLIC	??0?$vec@$01E$0A@@glm@@QAE@E@Z			; glm::vec<2,unsigned char,0>::vec<2,unsigned char,0>
PUBLIC	??0?$vec@$01E$0A@@glm@@QAE@EE@Z			; glm::vec<2,unsigned char,0>::vec<2,unsigned char,0>
PUBLIC	??E?$vec@$01E$0A@@glm@@QAEAAU01@XZ		; glm::vec<2,unsigned char,0>::operator++
PUBLIC	??F?$vec@$01E$0A@@glm@@QAEAAU01@XZ		; glm::vec<2,unsigned char,0>::operator--
PUBLIC	??E?$vec@$01E$0A@@glm@@QAE?AU01@H@Z		; glm::vec<2,unsigned char,0>::operator++
PUBLIC	??F?$vec@$01E$0A@@glm@@QAE?AU01@H@Z		; glm::vec<2,unsigned char,0>::operator--
PUBLIC	?length@?$vec@$01_K$0A@@glm@@SAHXZ		; glm::vec<2,unsigned __int64,0>::length
PUBLIC	??A?$vec@$01_K$0A@@glm@@QAEAA_KH@Z		; glm::vec<2,unsigned __int64,0>::operator[]
PUBLIC	??A?$vec@$01_K$0A@@glm@@QBEAB_KH@Z		; glm::vec<2,unsigned __int64,0>::operator[]
PUBLIC	??0?$vec@$01_K$0A@@glm@@QAE@_K@Z		; glm::vec<2,unsigned __int64,0>::vec<2,unsigned __int64,0>
PUBLIC	??0?$vec@$01_K$0A@@glm@@QAE@_K0@Z		; glm::vec<2,unsigned __int64,0>::vec<2,unsigned __int64,0>
PUBLIC	??E?$vec@$01_K$0A@@glm@@QAEAAU01@XZ		; glm::vec<2,unsigned __int64,0>::operator++
PUBLIC	??F?$vec@$01_K$0A@@glm@@QAEAAU01@XZ		; glm::vec<2,unsigned __int64,0>::operator--
PUBLIC	??E?$vec@$01_K$0A@@glm@@QAE?AU01@H@Z		; glm::vec<2,unsigned __int64,0>::operator++
PUBLIC	??F?$vec@$01_K$0A@@glm@@QAE?AU01@H@Z		; glm::vec<2,unsigned __int64,0>::operator--
PUBLIC	?length@?$vec@$01C$0A@@glm@@SAHXZ		; glm::vec<2,signed char,0>::length
PUBLIC	??A?$vec@$01C$0A@@glm@@QAEAACH@Z		; glm::vec<2,signed char,0>::operator[]
PUBLIC	??A?$vec@$01C$0A@@glm@@QBEABCH@Z		; glm::vec<2,signed char,0>::operator[]
PUBLIC	??0?$vec@$01C$0A@@glm@@QAE@C@Z			; glm::vec<2,signed char,0>::vec<2,signed char,0>
PUBLIC	??0?$vec@$01C$0A@@glm@@QAE@CC@Z			; glm::vec<2,signed char,0>::vec<2,signed char,0>
PUBLIC	??E?$vec@$01C$0A@@glm@@QAEAAU01@XZ		; glm::vec<2,signed char,0>::operator++
PUBLIC	??F?$vec@$01C$0A@@glm@@QAEAAU01@XZ		; glm::vec<2,signed char,0>::operator--
PUBLIC	??E?$vec@$01C$0A@@glm@@QAE?AU01@H@Z		; glm::vec<2,signed char,0>::operator++
PUBLIC	??F?$vec@$01C$0A@@glm@@QAE?AU01@H@Z		; glm::vec<2,signed char,0>::operator--
PUBLIC	?length@?$vec@$01H$0A@@glm@@SAHXZ		; glm::vec<2,int,0>::length
PUBLIC	??A?$vec@$01H$0A@@glm@@QAEAAHH@Z		; glm::vec<2,int,0>::operator[]
PUBLIC	??A?$vec@$01H$0A@@glm@@QBEABHH@Z		; glm::vec<2,int,0>::operator[]
PUBLIC	??0?$vec@$01H$0A@@glm@@QAE@H@Z			; glm::vec<2,int,0>::vec<2,int,0>
PUBLIC	??0?$vec@$01H$0A@@glm@@QAE@HH@Z			; glm::vec<2,int,0>::vec<2,int,0>
PUBLIC	??E?$vec@$01H$0A@@glm@@QAEAAU01@XZ		; glm::vec<2,int,0>::operator++
PUBLIC	??F?$vec@$01H$0A@@glm@@QAEAAU01@XZ		; glm::vec<2,int,0>::operator--
PUBLIC	??E?$vec@$01H$0A@@glm@@QAE?AU01@H@Z		; glm::vec<2,int,0>::operator++
PUBLIC	??F?$vec@$01H$0A@@glm@@QAE?AU01@H@Z		; glm::vec<2,int,0>::operator--
PUBLIC	?length@?$vec@$01_J$0A@@glm@@SAHXZ		; glm::vec<2,__int64,0>::length
PUBLIC	??A?$vec@$01_J$0A@@glm@@QAEAA_JH@Z		; glm::vec<2,__int64,0>::operator[]
PUBLIC	??A?$vec@$01_J$0A@@glm@@QBEAB_JH@Z		; glm::vec<2,__int64,0>::operator[]
PUBLIC	??0?$vec@$01_J$0A@@glm@@QAE@_J@Z		; glm::vec<2,__int64,0>::vec<2,__int64,0>
PUBLIC	??0?$vec@$01_J$0A@@glm@@QAE@_J0@Z		; glm::vec<2,__int64,0>::vec<2,__int64,0>
PUBLIC	??E?$vec@$01_J$0A@@glm@@QAEAAU01@XZ		; glm::vec<2,__int64,0>::operator++
PUBLIC	??F?$vec@$01_J$0A@@glm@@QAEAAU01@XZ		; glm::vec<2,__int64,0>::operator--
PUBLIC	??E?$vec@$01_J$0A@@glm@@QAE?AU01@H@Z		; glm::vec<2,__int64,0>::operator++
PUBLIC	??F?$vec@$01_J$0A@@glm@@QAE?AU01@H@Z		; glm::vec<2,__int64,0>::operator--
PUBLIC	?length@?$vec@$01N$0A@@glm@@SAHXZ		; glm::vec<2,double,0>::length
PUBLIC	??A?$vec@$01N$0A@@glm@@QAEAANH@Z		; glm::vec<2,double,0>::operator[]
PUBLIC	??A?$vec@$01N$0A@@glm@@QBEABNH@Z		; glm::vec<2,double,0>::operator[]
PUBLIC	??0?$vec@$01N$0A@@glm@@QAE@N@Z			; glm::vec<2,double,0>::vec<2,double,0>
PUBLIC	??0?$vec@$01N$0A@@glm@@QAE@NN@Z			; glm::vec<2,double,0>::vec<2,double,0>
PUBLIC	??E?$vec@$01N$0A@@glm@@QAEAAU01@XZ		; glm::vec<2,double,0>::operator++
PUBLIC	??F?$vec@$01N$0A@@glm@@QAEAAU01@XZ		; glm::vec<2,double,0>::operator--
PUBLIC	??E?$vec@$01N$0A@@glm@@QAE?AU01@H@Z		; glm::vec<2,double,0>::operator++
PUBLIC	??F?$vec@$01N$0A@@glm@@QAE?AU01@H@Z		; glm::vec<2,double,0>::operator--
PUBLIC	?length@?$vec@$02E$01@glm@@SAHXZ		; glm::vec<3,unsigned char,2>::length
PUBLIC	??A?$vec@$02E$01@glm@@QAEAAEH@Z			; glm::vec<3,unsigned char,2>::operator[]
PUBLIC	??A?$vec@$02E$01@glm@@QBEABEH@Z			; glm::vec<3,unsigned char,2>::operator[]
PUBLIC	??0?$vec@$02E$01@glm@@QAE@E@Z			; glm::vec<3,unsigned char,2>::vec<3,unsigned char,2>
PUBLIC	??0?$vec@$02E$01@glm@@QAE@EEE@Z			; glm::vec<3,unsigned char,2>::vec<3,unsigned char,2>
PUBLIC	??E?$vec@$02E$01@glm@@QAEAAU01@XZ		; glm::vec<3,unsigned char,2>::operator++
PUBLIC	??F?$vec@$02E$01@glm@@QAEAAU01@XZ		; glm::vec<3,unsigned char,2>::operator--
PUBLIC	??E?$vec@$02E$01@glm@@QAE?AU01@H@Z		; glm::vec<3,unsigned char,2>::operator++
PUBLIC	??F?$vec@$02E$01@glm@@QAE?AU01@H@Z		; glm::vec<3,unsigned char,2>::operator--
PUBLIC	?length@?$vec@$02G$01@glm@@SAHXZ		; glm::vec<3,unsigned short,2>::length
PUBLIC	??A?$vec@$02G$01@glm@@QAEAAGH@Z			; glm::vec<3,unsigned short,2>::operator[]
PUBLIC	??A?$vec@$02G$01@glm@@QBEABGH@Z			; glm::vec<3,unsigned short,2>::operator[]
PUBLIC	??0?$vec@$02G$01@glm@@QAE@G@Z			; glm::vec<3,unsigned short,2>::vec<3,unsigned short,2>
PUBLIC	??0?$vec@$02G$01@glm@@QAE@GGG@Z			; glm::vec<3,unsigned short,2>::vec<3,unsigned short,2>
PUBLIC	??E?$vec@$02G$01@glm@@QAEAAU01@XZ		; glm::vec<3,unsigned short,2>::operator++
PUBLIC	??F?$vec@$02G$01@glm@@QAEAAU01@XZ		; glm::vec<3,unsigned short,2>::operator--
PUBLIC	??E?$vec@$02G$01@glm@@QAE?AU01@H@Z		; glm::vec<3,unsigned short,2>::operator++
PUBLIC	??F?$vec@$02G$01@glm@@QAE?AU01@H@Z		; glm::vec<3,unsigned short,2>::operator--
PUBLIC	?length@?$vec@$02I$01@glm@@SAHXZ		; glm::vec<3,unsigned int,2>::length
PUBLIC	??A?$vec@$02I$01@glm@@QAEAAIH@Z			; glm::vec<3,unsigned int,2>::operator[]
PUBLIC	??A?$vec@$02I$01@glm@@QBEABIH@Z			; glm::vec<3,unsigned int,2>::operator[]
PUBLIC	??0?$vec@$02I$01@glm@@QAE@I@Z			; glm::vec<3,unsigned int,2>::vec<3,unsigned int,2>
PUBLIC	??0?$vec@$02I$01@glm@@QAE@III@Z			; glm::vec<3,unsigned int,2>::vec<3,unsigned int,2>
PUBLIC	??E?$vec@$02I$01@glm@@QAEAAU01@XZ		; glm::vec<3,unsigned int,2>::operator++
PUBLIC	??F?$vec@$02I$01@glm@@QAEAAU01@XZ		; glm::vec<3,unsigned int,2>::operator--
PUBLIC	??E?$vec@$02I$01@glm@@QAE?AU01@H@Z		; glm::vec<3,unsigned int,2>::operator++
PUBLIC	??F?$vec@$02I$01@glm@@QAE?AU01@H@Z		; glm::vec<3,unsigned int,2>::operator--
PUBLIC	?length@?$vec@$02_K$01@glm@@SAHXZ		; glm::vec<3,unsigned __int64,2>::length
PUBLIC	??A?$vec@$02_K$01@glm@@QAEAA_KH@Z		; glm::vec<3,unsigned __int64,2>::operator[]
PUBLIC	??A?$vec@$02_K$01@glm@@QBEAB_KH@Z		; glm::vec<3,unsigned __int64,2>::operator[]
PUBLIC	??0?$vec@$02_K$01@glm@@QAE@_K@Z			; glm::vec<3,unsigned __int64,2>::vec<3,unsigned __int64,2>
PUBLIC	??0?$vec@$02_K$01@glm@@QAE@_K00@Z		; glm::vec<3,unsigned __int64,2>::vec<3,unsigned __int64,2>
PUBLIC	??E?$vec@$02_K$01@glm@@QAEAAU01@XZ		; glm::vec<3,unsigned __int64,2>::operator++
PUBLIC	??F?$vec@$02_K$01@glm@@QAEAAU01@XZ		; glm::vec<3,unsigned __int64,2>::operator--
PUBLIC	??E?$vec@$02_K$01@glm@@QAE?AU01@H@Z		; glm::vec<3,unsigned __int64,2>::operator++
PUBLIC	??F?$vec@$02_K$01@glm@@QAE?AU01@H@Z		; glm::vec<3,unsigned __int64,2>::operator--
PUBLIC	?length@?$vec@$02C$01@glm@@SAHXZ		; glm::vec<3,signed char,2>::length
PUBLIC	??A?$vec@$02C$01@glm@@QAEAACH@Z			; glm::vec<3,signed char,2>::operator[]
PUBLIC	??A?$vec@$02C$01@glm@@QBEABCH@Z			; glm::vec<3,signed char,2>::operator[]
PUBLIC	??0?$vec@$02C$01@glm@@QAE@C@Z			; glm::vec<3,signed char,2>::vec<3,signed char,2>
PUBLIC	??0?$vec@$02C$01@glm@@QAE@CCC@Z			; glm::vec<3,signed char,2>::vec<3,signed char,2>
PUBLIC	??E?$vec@$02C$01@glm@@QAEAAU01@XZ		; glm::vec<3,signed char,2>::operator++
PUBLIC	??F?$vec@$02C$01@glm@@QAEAAU01@XZ		; glm::vec<3,signed char,2>::operator--
PUBLIC	??E?$vec@$02C$01@glm@@QAE?AU01@H@Z		; glm::vec<3,signed char,2>::operator++
PUBLIC	??F?$vec@$02C$01@glm@@QAE?AU01@H@Z		; glm::vec<3,signed char,2>::operator--
PUBLIC	?length@?$vec@$02F$01@glm@@SAHXZ		; glm::vec<3,short,2>::length
PUBLIC	??A?$vec@$02F$01@glm@@QAEAAFH@Z			; glm::vec<3,short,2>::operator[]
PUBLIC	??A?$vec@$02F$01@glm@@QBEABFH@Z			; glm::vec<3,short,2>::operator[]
PUBLIC	??0?$vec@$02F$01@glm@@QAE@F@Z			; glm::vec<3,short,2>::vec<3,short,2>
PUBLIC	??0?$vec@$02F$01@glm@@QAE@FFF@Z			; glm::vec<3,short,2>::vec<3,short,2>
PUBLIC	??E?$vec@$02F$01@glm@@QAEAAU01@XZ		; glm::vec<3,short,2>::operator++
PUBLIC	??F?$vec@$02F$01@glm@@QAEAAU01@XZ		; glm::vec<3,short,2>::operator--
PUBLIC	??E?$vec@$02F$01@glm@@QAE?AU01@H@Z		; glm::vec<3,short,2>::operator++
PUBLIC	??F?$vec@$02F$01@glm@@QAE?AU01@H@Z		; glm::vec<3,short,2>::operator--
PUBLIC	?length@?$vec@$02H$01@glm@@SAHXZ		; glm::vec<3,int,2>::length
PUBLIC	??A?$vec@$02H$01@glm@@QAEAAHH@Z			; glm::vec<3,int,2>::operator[]
PUBLIC	??A?$vec@$02H$01@glm@@QBEABHH@Z			; glm::vec<3,int,2>::operator[]
PUBLIC	??0?$vec@$02H$01@glm@@QAE@H@Z			; glm::vec<3,int,2>::vec<3,int,2>
PUBLIC	??0?$vec@$02H$01@glm@@QAE@HHH@Z			; glm::vec<3,int,2>::vec<3,int,2>
PUBLIC	??E?$vec@$02H$01@glm@@QAEAAU01@XZ		; glm::vec<3,int,2>::operator++
PUBLIC	??F?$vec@$02H$01@glm@@QAEAAU01@XZ		; glm::vec<3,int,2>::operator--
PUBLIC	??E?$vec@$02H$01@glm@@QAE?AU01@H@Z		; glm::vec<3,int,2>::operator++
PUBLIC	??F?$vec@$02H$01@glm@@QAE?AU01@H@Z		; glm::vec<3,int,2>::operator--
PUBLIC	?length@?$vec@$02_J$01@glm@@SAHXZ		; glm::vec<3,__int64,2>::length
PUBLIC	??A?$vec@$02_J$01@glm@@QAEAA_JH@Z		; glm::vec<3,__int64,2>::operator[]
PUBLIC	??A?$vec@$02_J$01@glm@@QBEAB_JH@Z		; glm::vec<3,__int64,2>::operator[]
PUBLIC	??0?$vec@$02_J$01@glm@@QAE@_J@Z			; glm::vec<3,__int64,2>::vec<3,__int64,2>
PUBLIC	??0?$vec@$02_J$01@glm@@QAE@_J00@Z		; glm::vec<3,__int64,2>::vec<3,__int64,2>
PUBLIC	??E?$vec@$02_J$01@glm@@QAEAAU01@XZ		; glm::vec<3,__int64,2>::operator++
PUBLIC	??F?$vec@$02_J$01@glm@@QAEAAU01@XZ		; glm::vec<3,__int64,2>::operator--
PUBLIC	??E?$vec@$02_J$01@glm@@QAE?AU01@H@Z		; glm::vec<3,__int64,2>::operator++
PUBLIC	??F?$vec@$02_J$01@glm@@QAE?AU01@H@Z		; glm::vec<3,__int64,2>::operator--
PUBLIC	?length@?$vec@$02M$01@glm@@SAHXZ		; glm::vec<3,float,2>::length
PUBLIC	??A?$vec@$02M$01@glm@@QAEAAMH@Z			; glm::vec<3,float,2>::operator[]
PUBLIC	??A?$vec@$02M$01@glm@@QBEABMH@Z			; glm::vec<3,float,2>::operator[]
PUBLIC	??0?$vec@$02M$01@glm@@QAE@M@Z			; glm::vec<3,float,2>::vec<3,float,2>
PUBLIC	??0?$vec@$02M$01@glm@@QAE@MMM@Z			; glm::vec<3,float,2>::vec<3,float,2>
PUBLIC	??E?$vec@$02M$01@glm@@QAEAAU01@XZ		; glm::vec<3,float,2>::operator++
PUBLIC	??F?$vec@$02M$01@glm@@QAEAAU01@XZ		; glm::vec<3,float,2>::operator--
PUBLIC	??E?$vec@$02M$01@glm@@QAE?AU01@H@Z		; glm::vec<3,float,2>::operator++
PUBLIC	??F?$vec@$02M$01@glm@@QAE?AU01@H@Z		; glm::vec<3,float,2>::operator--
PUBLIC	?length@?$vec@$02N$01@glm@@SAHXZ		; glm::vec<3,double,2>::length
PUBLIC	??A?$vec@$02N$01@glm@@QAEAANH@Z			; glm::vec<3,double,2>::operator[]
PUBLIC	??A?$vec@$02N$01@glm@@QBEABNH@Z			; glm::vec<3,double,2>::operator[]
PUBLIC	??0?$vec@$02N$01@glm@@QAE@N@Z			; glm::vec<3,double,2>::vec<3,double,2>
PUBLIC	??0?$vec@$02N$01@glm@@QAE@NNN@Z			; glm::vec<3,double,2>::vec<3,double,2>
PUBLIC	??E?$vec@$02N$01@glm@@QAEAAU01@XZ		; glm::vec<3,double,2>::operator++
PUBLIC	??F?$vec@$02N$01@glm@@QAEAAU01@XZ		; glm::vec<3,double,2>::operator--
PUBLIC	??E?$vec@$02N$01@glm@@QAE?AU01@H@Z		; glm::vec<3,double,2>::operator++
PUBLIC	??F?$vec@$02N$01@glm@@QAE?AU01@H@Z		; glm::vec<3,double,2>::operator--
PUBLIC	?length@?$vec@$02E$00@glm@@SAHXZ		; glm::vec<3,unsigned char,1>::length
PUBLIC	??A?$vec@$02E$00@glm@@QAEAAEH@Z			; glm::vec<3,unsigned char,1>::operator[]
PUBLIC	??A?$vec@$02E$00@glm@@QBEABEH@Z			; glm::vec<3,unsigned char,1>::operator[]
PUBLIC	??0?$vec@$02E$00@glm@@QAE@E@Z			; glm::vec<3,unsigned char,1>::vec<3,unsigned char,1>
PUBLIC	??0?$vec@$02E$00@glm@@QAE@EEE@Z			; glm::vec<3,unsigned char,1>::vec<3,unsigned char,1>
PUBLIC	??E?$vec@$02E$00@glm@@QAEAAU01@XZ		; glm::vec<3,unsigned char,1>::operator++
PUBLIC	??F?$vec@$02E$00@glm@@QAEAAU01@XZ		; glm::vec<3,unsigned char,1>::operator--
PUBLIC	??E?$vec@$02E$00@glm@@QAE?AU01@H@Z		; glm::vec<3,unsigned char,1>::operator++
PUBLIC	??F?$vec@$02E$00@glm@@QAE?AU01@H@Z		; glm::vec<3,unsigned char,1>::operator--
PUBLIC	?length@?$vec@$02G$00@glm@@SAHXZ		; glm::vec<3,unsigned short,1>::length
PUBLIC	??A?$vec@$02G$00@glm@@QAEAAGH@Z			; glm::vec<3,unsigned short,1>::operator[]
PUBLIC	??A?$vec@$02G$00@glm@@QBEABGH@Z			; glm::vec<3,unsigned short,1>::operator[]
PUBLIC	??0?$vec@$02G$00@glm@@QAE@G@Z			; glm::vec<3,unsigned short,1>::vec<3,unsigned short,1>
PUBLIC	??0?$vec@$02G$00@glm@@QAE@GGG@Z			; glm::vec<3,unsigned short,1>::vec<3,unsigned short,1>
PUBLIC	??E?$vec@$02G$00@glm@@QAEAAU01@XZ		; glm::vec<3,unsigned short,1>::operator++
PUBLIC	??F?$vec@$02G$00@glm@@QAEAAU01@XZ		; glm::vec<3,unsigned short,1>::operator--
PUBLIC	??E?$vec@$02G$00@glm@@QAE?AU01@H@Z		; glm::vec<3,unsigned short,1>::operator++
PUBLIC	??F?$vec@$02G$00@glm@@QAE?AU01@H@Z		; glm::vec<3,unsigned short,1>::operator--
PUBLIC	?length@?$vec@$02I$00@glm@@SAHXZ		; glm::vec<3,unsigned int,1>::length
PUBLIC	??A?$vec@$02I$00@glm@@QAEAAIH@Z			; glm::vec<3,unsigned int,1>::operator[]
PUBLIC	??A?$vec@$02I$00@glm@@QBEABIH@Z			; glm::vec<3,unsigned int,1>::operator[]
PUBLIC	??0?$vec@$02I$00@glm@@QAE@I@Z			; glm::vec<3,unsigned int,1>::vec<3,unsigned int,1>
PUBLIC	??0?$vec@$02I$00@glm@@QAE@III@Z			; glm::vec<3,unsigned int,1>::vec<3,unsigned int,1>
PUBLIC	??E?$vec@$02I$00@glm@@QAEAAU01@XZ		; glm::vec<3,unsigned int,1>::operator++
PUBLIC	??F?$vec@$02I$00@glm@@QAEAAU01@XZ		; glm::vec<3,unsigned int,1>::operator--
PUBLIC	??E?$vec@$02I$00@glm@@QAE?AU01@H@Z		; glm::vec<3,unsigned int,1>::operator++
PUBLIC	??F?$vec@$02I$00@glm@@QAE?AU01@H@Z		; glm::vec<3,unsigned int,1>::operator--
PUBLIC	?length@?$vec@$02_K$00@glm@@SAHXZ		; glm::vec<3,unsigned __int64,1>::length
PUBLIC	??A?$vec@$02_K$00@glm@@QAEAA_KH@Z		; glm::vec<3,unsigned __int64,1>::operator[]
PUBLIC	??A?$vec@$02_K$00@glm@@QBEAB_KH@Z		; glm::vec<3,unsigned __int64,1>::operator[]
PUBLIC	??0?$vec@$02_K$00@glm@@QAE@_K@Z			; glm::vec<3,unsigned __int64,1>::vec<3,unsigned __int64,1>
PUBLIC	??0?$vec@$02_K$00@glm@@QAE@_K00@Z		; glm::vec<3,unsigned __int64,1>::vec<3,unsigned __int64,1>
PUBLIC	??E?$vec@$02_K$00@glm@@QAEAAU01@XZ		; glm::vec<3,unsigned __int64,1>::operator++
PUBLIC	??F?$vec@$02_K$00@glm@@QAEAAU01@XZ		; glm::vec<3,unsigned __int64,1>::operator--
PUBLIC	??E?$vec@$02_K$00@glm@@QAE?AU01@H@Z		; glm::vec<3,unsigned __int64,1>::operator++
PUBLIC	??F?$vec@$02_K$00@glm@@QAE?AU01@H@Z		; glm::vec<3,unsigned __int64,1>::operator--
PUBLIC	?length@?$vec@$02C$00@glm@@SAHXZ		; glm::vec<3,signed char,1>::length
PUBLIC	??A?$vec@$02C$00@glm@@QAEAACH@Z			; glm::vec<3,signed char,1>::operator[]
PUBLIC	??A?$vec@$02C$00@glm@@QBEABCH@Z			; glm::vec<3,signed char,1>::operator[]
PUBLIC	??0?$vec@$02C$00@glm@@QAE@C@Z			; glm::vec<3,signed char,1>::vec<3,signed char,1>
PUBLIC	??0?$vec@$02C$00@glm@@QAE@CCC@Z			; glm::vec<3,signed char,1>::vec<3,signed char,1>
PUBLIC	??E?$vec@$02C$00@glm@@QAEAAU01@XZ		; glm::vec<3,signed char,1>::operator++
PUBLIC	??F?$vec@$02C$00@glm@@QAEAAU01@XZ		; glm::vec<3,signed char,1>::operator--
PUBLIC	??E?$vec@$02C$00@glm@@QAE?AU01@H@Z		; glm::vec<3,signed char,1>::operator++
PUBLIC	??F?$vec@$02C$00@glm@@QAE?AU01@H@Z		; glm::vec<3,signed char,1>::operator--
PUBLIC	?length@?$vec@$02F$00@glm@@SAHXZ		; glm::vec<3,short,1>::length
PUBLIC	??A?$vec@$02F$00@glm@@QAEAAFH@Z			; glm::vec<3,short,1>::operator[]
PUBLIC	??A?$vec@$02F$00@glm@@QBEABFH@Z			; glm::vec<3,short,1>::operator[]
PUBLIC	??0?$vec@$02F$00@glm@@QAE@F@Z			; glm::vec<3,short,1>::vec<3,short,1>
PUBLIC	??0?$vec@$02F$00@glm@@QAE@FFF@Z			; glm::vec<3,short,1>::vec<3,short,1>
PUBLIC	??E?$vec@$02F$00@glm@@QAEAAU01@XZ		; glm::vec<3,short,1>::operator++
PUBLIC	??F?$vec@$02F$00@glm@@QAEAAU01@XZ		; glm::vec<3,short,1>::operator--
PUBLIC	??E?$vec@$02F$00@glm@@QAE?AU01@H@Z		; glm::vec<3,short,1>::operator++
PUBLIC	??F?$vec@$02F$00@glm@@QAE?AU01@H@Z		; glm::vec<3,short,1>::operator--
PUBLIC	?length@?$vec@$02H$00@glm@@SAHXZ		; glm::vec<3,int,1>::length
PUBLIC	??A?$vec@$02H$00@glm@@QAEAAHH@Z			; glm::vec<3,int,1>::operator[]
PUBLIC	??A?$vec@$02H$00@glm@@QBEABHH@Z			; glm::vec<3,int,1>::operator[]
PUBLIC	??0?$vec@$02H$00@glm@@QAE@H@Z			; glm::vec<3,int,1>::vec<3,int,1>
PUBLIC	??0?$vec@$02H$00@glm@@QAE@HHH@Z			; glm::vec<3,int,1>::vec<3,int,1>
PUBLIC	??E?$vec@$02H$00@glm@@QAEAAU01@XZ		; glm::vec<3,int,1>::operator++
PUBLIC	??F?$vec@$02H$00@glm@@QAEAAU01@XZ		; glm::vec<3,int,1>::operator--
PUBLIC	??E?$vec@$02H$00@glm@@QAE?AU01@H@Z		; glm::vec<3,int,1>::operator++
PUBLIC	??F?$vec@$02H$00@glm@@QAE?AU01@H@Z		; glm::vec<3,int,1>::operator--
PUBLIC	?length@?$vec@$02_J$00@glm@@SAHXZ		; glm::vec<3,__int64,1>::length
PUBLIC	??A?$vec@$02_J$00@glm@@QAEAA_JH@Z		; glm::vec<3,__int64,1>::operator[]
PUBLIC	??A?$vec@$02_J$00@glm@@QBEAB_JH@Z		; glm::vec<3,__int64,1>::operator[]
PUBLIC	??0?$vec@$02_J$00@glm@@QAE@_J@Z			; glm::vec<3,__int64,1>::vec<3,__int64,1>
PUBLIC	??0?$vec@$02_J$00@glm@@QAE@_J00@Z		; glm::vec<3,__int64,1>::vec<3,__int64,1>
PUBLIC	??E?$vec@$02_J$00@glm@@QAEAAU01@XZ		; glm::vec<3,__int64,1>::operator++
PUBLIC	??F?$vec@$02_J$00@glm@@QAEAAU01@XZ		; glm::vec<3,__int64,1>::operator--
PUBLIC	??E?$vec@$02_J$00@glm@@QAE?AU01@H@Z		; glm::vec<3,__int64,1>::operator++
PUBLIC	??F?$vec@$02_J$00@glm@@QAE?AU01@H@Z		; glm::vec<3,__int64,1>::operator--
PUBLIC	?length@?$vec@$02M$00@glm@@SAHXZ		; glm::vec<3,float,1>::length
PUBLIC	??A?$vec@$02M$00@glm@@QAEAAMH@Z			; glm::vec<3,float,1>::operator[]
PUBLIC	??A?$vec@$02M$00@glm@@QBEABMH@Z			; glm::vec<3,float,1>::operator[]
PUBLIC	??0?$vec@$02M$00@glm@@QAE@M@Z			; glm::vec<3,float,1>::vec<3,float,1>
PUBLIC	??0?$vec@$02M$00@glm@@QAE@MMM@Z			; glm::vec<3,float,1>::vec<3,float,1>
PUBLIC	??E?$vec@$02M$00@glm@@QAEAAU01@XZ		; glm::vec<3,float,1>::operator++
PUBLIC	??F?$vec@$02M$00@glm@@QAEAAU01@XZ		; glm::vec<3,float,1>::operator--
PUBLIC	??E?$vec@$02M$00@glm@@QAE?AU01@H@Z		; glm::vec<3,float,1>::operator++
PUBLIC	??F?$vec@$02M$00@glm@@QAE?AU01@H@Z		; glm::vec<3,float,1>::operator--
PUBLIC	?length@?$vec@$02N$00@glm@@SAHXZ		; glm::vec<3,double,1>::length
PUBLIC	??A?$vec@$02N$00@glm@@QAEAANH@Z			; glm::vec<3,double,1>::operator[]
PUBLIC	??A?$vec@$02N$00@glm@@QBEABNH@Z			; glm::vec<3,double,1>::operator[]
PUBLIC	??0?$vec@$02N$00@glm@@QAE@N@Z			; glm::vec<3,double,1>::vec<3,double,1>
PUBLIC	??0?$vec@$02N$00@glm@@QAE@NNN@Z			; glm::vec<3,double,1>::vec<3,double,1>
PUBLIC	??E?$vec@$02N$00@glm@@QAEAAU01@XZ		; glm::vec<3,double,1>::operator++
PUBLIC	??F?$vec@$02N$00@glm@@QAEAAU01@XZ		; glm::vec<3,double,1>::operator--
PUBLIC	??E?$vec@$02N$00@glm@@QAE?AU01@H@Z		; glm::vec<3,double,1>::operator++
PUBLIC	??F?$vec@$02N$00@glm@@QAE?AU01@H@Z		; glm::vec<3,double,1>::operator--
PUBLIC	?length@?$vec@$02E$0A@@glm@@SAHXZ		; glm::vec<3,unsigned char,0>::length
PUBLIC	??A?$vec@$02E$0A@@glm@@QAEAAEH@Z		; glm::vec<3,unsigned char,0>::operator[]
PUBLIC	??A?$vec@$02E$0A@@glm@@QBEABEH@Z		; glm::vec<3,unsigned char,0>::operator[]
PUBLIC	??0?$vec@$02E$0A@@glm@@QAE@E@Z			; glm::vec<3,unsigned char,0>::vec<3,unsigned char,0>
PUBLIC	??0?$vec@$02E$0A@@glm@@QAE@EEE@Z		; glm::vec<3,unsigned char,0>::vec<3,unsigned char,0>
PUBLIC	??E?$vec@$02E$0A@@glm@@QAEAAU01@XZ		; glm::vec<3,unsigned char,0>::operator++
PUBLIC	??F?$vec@$02E$0A@@glm@@QAEAAU01@XZ		; glm::vec<3,unsigned char,0>::operator--
PUBLIC	??E?$vec@$02E$0A@@glm@@QAE?AU01@H@Z		; glm::vec<3,unsigned char,0>::operator++
PUBLIC	??F?$vec@$02E$0A@@glm@@QAE?AU01@H@Z		; glm::vec<3,unsigned char,0>::operator--
PUBLIC	?length@?$vec@$02G$0A@@glm@@SAHXZ		; glm::vec<3,unsigned short,0>::length
PUBLIC	??A?$vec@$02G$0A@@glm@@QAEAAGH@Z		; glm::vec<3,unsigned short,0>::operator[]
PUBLIC	??A?$vec@$02G$0A@@glm@@QBEABGH@Z		; glm::vec<3,unsigned short,0>::operator[]
PUBLIC	??0?$vec@$02G$0A@@glm@@QAE@G@Z			; glm::vec<3,unsigned short,0>::vec<3,unsigned short,0>
PUBLIC	??0?$vec@$02G$0A@@glm@@QAE@GGG@Z		; glm::vec<3,unsigned short,0>::vec<3,unsigned short,0>
PUBLIC	??E?$vec@$02G$0A@@glm@@QAEAAU01@XZ		; glm::vec<3,unsigned short,0>::operator++
PUBLIC	??F?$vec@$02G$0A@@glm@@QAEAAU01@XZ		; glm::vec<3,unsigned short,0>::operator--
PUBLIC	??E?$vec@$02G$0A@@glm@@QAE?AU01@H@Z		; glm::vec<3,unsigned short,0>::operator++
PUBLIC	??F?$vec@$02G$0A@@glm@@QAE?AU01@H@Z		; glm::vec<3,unsigned short,0>::operator--
PUBLIC	?length@?$vec@$02I$0A@@glm@@SAHXZ		; glm::vec<3,unsigned int,0>::length
PUBLIC	??A?$vec@$02I$0A@@glm@@QAEAAIH@Z		; glm::vec<3,unsigned int,0>::operator[]
PUBLIC	??A?$vec@$02I$0A@@glm@@QBEABIH@Z		; glm::vec<3,unsigned int,0>::operator[]
PUBLIC	??0?$vec@$02I$0A@@glm@@QAE@I@Z			; glm::vec<3,unsigned int,0>::vec<3,unsigned int,0>
PUBLIC	??0?$vec@$02I$0A@@glm@@QAE@III@Z		; glm::vec<3,unsigned int,0>::vec<3,unsigned int,0>
PUBLIC	??E?$vec@$02I$0A@@glm@@QAEAAU01@XZ		; glm::vec<3,unsigned int,0>::operator++
PUBLIC	??F?$vec@$02I$0A@@glm@@QAEAAU01@XZ		; glm::vec<3,unsigned int,0>::operator--
PUBLIC	??E?$vec@$02I$0A@@glm@@QAE?AU01@H@Z		; glm::vec<3,unsigned int,0>::operator++
PUBLIC	??F?$vec@$02I$0A@@glm@@QAE?AU01@H@Z		; glm::vec<3,unsigned int,0>::operator--
PUBLIC	?length@?$vec@$02_K$0A@@glm@@SAHXZ		; glm::vec<3,unsigned __int64,0>::length
PUBLIC	??A?$vec@$02_K$0A@@glm@@QAEAA_KH@Z		; glm::vec<3,unsigned __int64,0>::operator[]
PUBLIC	??A?$vec@$02_K$0A@@glm@@QBEAB_KH@Z		; glm::vec<3,unsigned __int64,0>::operator[]
PUBLIC	??0?$vec@$02_K$0A@@glm@@QAE@_K@Z		; glm::vec<3,unsigned __int64,0>::vec<3,unsigned __int64,0>
PUBLIC	??0?$vec@$02_K$0A@@glm@@QAE@_K00@Z		; glm::vec<3,unsigned __int64,0>::vec<3,unsigned __int64,0>
PUBLIC	??E?$vec@$02_K$0A@@glm@@QAEAAU01@XZ		; glm::vec<3,unsigned __int64,0>::operator++
PUBLIC	??F?$vec@$02_K$0A@@glm@@QAEAAU01@XZ		; glm::vec<3,unsigned __int64,0>::operator--
PUBLIC	??E?$vec@$02_K$0A@@glm@@QAE?AU01@H@Z		; glm::vec<3,unsigned __int64,0>::operator++
PUBLIC	??F?$vec@$02_K$0A@@glm@@QAE?AU01@H@Z		; glm::vec<3,unsigned __int64,0>::operator--
PUBLIC	?length@?$vec@$02C$0A@@glm@@SAHXZ		; glm::vec<3,signed char,0>::length
PUBLIC	??A?$vec@$02C$0A@@glm@@QAEAACH@Z		; glm::vec<3,signed char,0>::operator[]
PUBLIC	??A?$vec@$02C$0A@@glm@@QBEABCH@Z		; glm::vec<3,signed char,0>::operator[]
PUBLIC	??0?$vec@$02C$0A@@glm@@QAE@C@Z			; glm::vec<3,signed char,0>::vec<3,signed char,0>
PUBLIC	??0?$vec@$02C$0A@@glm@@QAE@CCC@Z		; glm::vec<3,signed char,0>::vec<3,signed char,0>
PUBLIC	??E?$vec@$02C$0A@@glm@@QAEAAU01@XZ		; glm::vec<3,signed char,0>::operator++
PUBLIC	??F?$vec@$02C$0A@@glm@@QAEAAU01@XZ		; glm::vec<3,signed char,0>::operator--
PUBLIC	??E?$vec@$02C$0A@@glm@@QAE?AU01@H@Z		; glm::vec<3,signed char,0>::operator++
PUBLIC	??F?$vec@$02C$0A@@glm@@QAE?AU01@H@Z		; glm::vec<3,signed char,0>::operator--
PUBLIC	?length@?$vec@$02F$0A@@glm@@SAHXZ		; glm::vec<3,short,0>::length
PUBLIC	??A?$vec@$02F$0A@@glm@@QAEAAFH@Z		; glm::vec<3,short,0>::operator[]
PUBLIC	??A?$vec@$02F$0A@@glm@@QBEABFH@Z		; glm::vec<3,short,0>::operator[]
PUBLIC	??0?$vec@$02F$0A@@glm@@QAE@F@Z			; glm::vec<3,short,0>::vec<3,short,0>
PUBLIC	??0?$vec@$02F$0A@@glm@@QAE@FFF@Z		; glm::vec<3,short,0>::vec<3,short,0>
PUBLIC	??E?$vec@$02F$0A@@glm@@QAEAAU01@XZ		; glm::vec<3,short,0>::operator++
PUBLIC	??F?$vec@$02F$0A@@glm@@QAEAAU01@XZ		; glm::vec<3,short,0>::operator--
PUBLIC	??E?$vec@$02F$0A@@glm@@QAE?AU01@H@Z		; glm::vec<3,short,0>::operator++
PUBLIC	??F?$vec@$02F$0A@@glm@@QAE?AU01@H@Z		; glm::vec<3,short,0>::operator--
PUBLIC	?length@?$vec@$02H$0A@@glm@@SAHXZ		; glm::vec<3,int,0>::length
PUBLIC	??A?$vec@$02H$0A@@glm@@QAEAAHH@Z		; glm::vec<3,int,0>::operator[]
PUBLIC	??A?$vec@$02H$0A@@glm@@QBEABHH@Z		; glm::vec<3,int,0>::operator[]
PUBLIC	??0?$vec@$02H$0A@@glm@@QAE@H@Z			; glm::vec<3,int,0>::vec<3,int,0>
PUBLIC	??0?$vec@$02H$0A@@glm@@QAE@HHH@Z		; glm::vec<3,int,0>::vec<3,int,0>
PUBLIC	??E?$vec@$02H$0A@@glm@@QAEAAU01@XZ		; glm::vec<3,int,0>::operator++
PUBLIC	??F?$vec@$02H$0A@@glm@@QAEAAU01@XZ		; glm::vec<3,int,0>::operator--
PUBLIC	??E?$vec@$02H$0A@@glm@@QAE?AU01@H@Z		; glm::vec<3,int,0>::operator++
PUBLIC	??F?$vec@$02H$0A@@glm@@QAE?AU01@H@Z		; glm::vec<3,int,0>::operator--
PUBLIC	?length@?$vec@$02_J$0A@@glm@@SAHXZ		; glm::vec<3,__int64,0>::length
PUBLIC	??A?$vec@$02_J$0A@@glm@@QAEAA_JH@Z		; glm::vec<3,__int64,0>::operator[]
PUBLIC	??A?$vec@$02_J$0A@@glm@@QBEAB_JH@Z		; glm::vec<3,__int64,0>::operator[]
PUBLIC	??0?$vec@$02_J$0A@@glm@@QAE@_J@Z		; glm::vec<3,__int64,0>::vec<3,__int64,0>
PUBLIC	??0?$vec@$02_J$0A@@glm@@QAE@_J00@Z		; glm::vec<3,__int64,0>::vec<3,__int64,0>
PUBLIC	??E?$vec@$02_J$0A@@glm@@QAEAAU01@XZ		; glm::vec<3,__int64,0>::operator++
PUBLIC	??F?$vec@$02_J$0A@@glm@@QAEAAU01@XZ		; glm::vec<3,__int64,0>::operator--
PUBLIC	??E?$vec@$02_J$0A@@glm@@QAE?AU01@H@Z		; glm::vec<3,__int64,0>::operator++
PUBLIC	??F?$vec@$02_J$0A@@glm@@QAE?AU01@H@Z		; glm::vec<3,__int64,0>::operator--
PUBLIC	?length@?$vec@$02M$0A@@glm@@SAHXZ		; glm::vec<3,float,0>::length
PUBLIC	??A?$vec@$02M$0A@@glm@@QAEAAMH@Z		; glm::vec<3,float,0>::operator[]
PUBLIC	??A?$vec@$02M$0A@@glm@@QBEABMH@Z		; glm::vec<3,float,0>::operator[]
PUBLIC	??0?$vec@$02M$0A@@glm@@QAE@M@Z			; glm::vec<3,float,0>::vec<3,float,0>
PUBLIC	??0?$vec@$02M$0A@@glm@@QAE@MMM@Z		; glm::vec<3,float,0>::vec<3,float,0>
PUBLIC	??E?$vec@$02M$0A@@glm@@QAEAAU01@XZ		; glm::vec<3,float,0>::operator++
PUBLIC	??F?$vec@$02M$0A@@glm@@QAEAAU01@XZ		; glm::vec<3,float,0>::operator--
PUBLIC	??E?$vec@$02M$0A@@glm@@QAE?AU01@H@Z		; glm::vec<3,float,0>::operator++
PUBLIC	??F?$vec@$02M$0A@@glm@@QAE?AU01@H@Z		; glm::vec<3,float,0>::operator--
PUBLIC	?length@?$vec@$02N$0A@@glm@@SAHXZ		; glm::vec<3,double,0>::length
PUBLIC	??A?$vec@$02N$0A@@glm@@QAEAANH@Z		; glm::vec<3,double,0>::operator[]
PUBLIC	??A?$vec@$02N$0A@@glm@@QBEABNH@Z		; glm::vec<3,double,0>::operator[]
PUBLIC	??0?$vec@$02N$0A@@glm@@QAE@N@Z			; glm::vec<3,double,0>::vec<3,double,0>
PUBLIC	??0?$vec@$02N$0A@@glm@@QAE@NNN@Z		; glm::vec<3,double,0>::vec<3,double,0>
PUBLIC	??E?$vec@$02N$0A@@glm@@QAEAAU01@XZ		; glm::vec<3,double,0>::operator++
PUBLIC	??F?$vec@$02N$0A@@glm@@QAEAAU01@XZ		; glm::vec<3,double,0>::operator--
PUBLIC	??E?$vec@$02N$0A@@glm@@QAE?AU01@H@Z		; glm::vec<3,double,0>::operator++
PUBLIC	??F?$vec@$02N$0A@@glm@@QAE?AU01@H@Z		; glm::vec<3,double,0>::operator--
PUBLIC	?length@?$vec@$03E$01@glm@@SAHXZ		; glm::vec<4,unsigned char,2>::length
PUBLIC	??A?$vec@$03E$01@glm@@QAEAAEH@Z			; glm::vec<4,unsigned char,2>::operator[]
PUBLIC	??A?$vec@$03E$01@glm@@QBEABEH@Z			; glm::vec<4,unsigned char,2>::operator[]
PUBLIC	??0?$vec@$03E$01@glm@@QAE@E@Z			; glm::vec<4,unsigned char,2>::vec<4,unsigned char,2>
PUBLIC	??0?$vec@$03E$01@glm@@QAE@EEEE@Z		; glm::vec<4,unsigned char,2>::vec<4,unsigned char,2>
PUBLIC	??E?$vec@$03E$01@glm@@QAEAAU01@XZ		; glm::vec<4,unsigned char,2>::operator++
PUBLIC	??F?$vec@$03E$01@glm@@QAEAAU01@XZ		; glm::vec<4,unsigned char,2>::operator--
PUBLIC	??E?$vec@$03E$01@glm@@QAE?AU01@H@Z		; glm::vec<4,unsigned char,2>::operator++
PUBLIC	??F?$vec@$03E$01@glm@@QAE?AU01@H@Z		; glm::vec<4,unsigned char,2>::operator--
PUBLIC	?length@?$vec@$03G$01@glm@@SAHXZ		; glm::vec<4,unsigned short,2>::length
PUBLIC	??A?$vec@$03G$01@glm@@QAEAAGH@Z			; glm::vec<4,unsigned short,2>::operator[]
PUBLIC	??A?$vec@$03G$01@glm@@QBEABGH@Z			; glm::vec<4,unsigned short,2>::operator[]
PUBLIC	??0?$vec@$03G$01@glm@@QAE@G@Z			; glm::vec<4,unsigned short,2>::vec<4,unsigned short,2>
PUBLIC	??0?$vec@$03G$01@glm@@QAE@GGGG@Z		; glm::vec<4,unsigned short,2>::vec<4,unsigned short,2>
PUBLIC	??E?$vec@$03G$01@glm@@QAEAAU01@XZ		; glm::vec<4,unsigned short,2>::operator++
PUBLIC	??F?$vec@$03G$01@glm@@QAEAAU01@XZ		; glm::vec<4,unsigned short,2>::operator--
PUBLIC	??E?$vec@$03G$01@glm@@QAE?AU01@H@Z		; glm::vec<4,unsigned short,2>::operator++
PUBLIC	??F?$vec@$03G$01@glm@@QAE?AU01@H@Z		; glm::vec<4,unsigned short,2>::operator--
PUBLIC	?length@?$vec@$03I$01@glm@@SAHXZ		; glm::vec<4,unsigned int,2>::length
PUBLIC	??A?$vec@$03I$01@glm@@QAEAAIH@Z			; glm::vec<4,unsigned int,2>::operator[]
PUBLIC	??A?$vec@$03I$01@glm@@QBEABIH@Z			; glm::vec<4,unsigned int,2>::operator[]
PUBLIC	??0?$vec@$03I$01@glm@@QAE@I@Z			; glm::vec<4,unsigned int,2>::vec<4,unsigned int,2>
PUBLIC	??0?$vec@$03I$01@glm@@QAE@IIII@Z		; glm::vec<4,unsigned int,2>::vec<4,unsigned int,2>
PUBLIC	??E?$vec@$03I$01@glm@@QAEAAU01@XZ		; glm::vec<4,unsigned int,2>::operator++
PUBLIC	??F?$vec@$03I$01@glm@@QAEAAU01@XZ		; glm::vec<4,unsigned int,2>::operator--
PUBLIC	??E?$vec@$03I$01@glm@@QAE?AU01@H@Z		; glm::vec<4,unsigned int,2>::operator++
PUBLIC	??F?$vec@$03I$01@glm@@QAE?AU01@H@Z		; glm::vec<4,unsigned int,2>::operator--
PUBLIC	?length@?$vec@$03_K$01@glm@@SAHXZ		; glm::vec<4,unsigned __int64,2>::length
PUBLIC	??A?$vec@$03_K$01@glm@@QAEAA_KH@Z		; glm::vec<4,unsigned __int64,2>::operator[]
PUBLIC	??A?$vec@$03_K$01@glm@@QBEAB_KH@Z		; glm::vec<4,unsigned __int64,2>::operator[]
PUBLIC	??0?$vec@$03_K$01@glm@@QAE@_K@Z			; glm::vec<4,unsigned __int64,2>::vec<4,unsigned __int64,2>
PUBLIC	??0?$vec@$03_K$01@glm@@QAE@_K000@Z		; glm::vec<4,unsigned __int64,2>::vec<4,unsigned __int64,2>
PUBLIC	??E?$vec@$03_K$01@glm@@QAEAAU01@XZ		; glm::vec<4,unsigned __int64,2>::operator++
PUBLIC	??F?$vec@$03_K$01@glm@@QAEAAU01@XZ		; glm::vec<4,unsigned __int64,2>::operator--
PUBLIC	??E?$vec@$03_K$01@glm@@QAE?AU01@H@Z		; glm::vec<4,unsigned __int64,2>::operator++
PUBLIC	??F?$vec@$03_K$01@glm@@QAE?AU01@H@Z		; glm::vec<4,unsigned __int64,2>::operator--
PUBLIC	?length@?$vec@$03C$01@glm@@SAHXZ		; glm::vec<4,signed char,2>::length
PUBLIC	??A?$vec@$03C$01@glm@@QAEAACH@Z			; glm::vec<4,signed char,2>::operator[]
PUBLIC	??A?$vec@$03C$01@glm@@QBEABCH@Z			; glm::vec<4,signed char,2>::operator[]
PUBLIC	??0?$vec@$03C$01@glm@@QAE@C@Z			; glm::vec<4,signed char,2>::vec<4,signed char,2>
PUBLIC	??0?$vec@$03C$01@glm@@QAE@CCCC@Z		; glm::vec<4,signed char,2>::vec<4,signed char,2>
PUBLIC	??E?$vec@$03C$01@glm@@QAEAAU01@XZ		; glm::vec<4,signed char,2>::operator++
PUBLIC	??F?$vec@$03C$01@glm@@QAEAAU01@XZ		; glm::vec<4,signed char,2>::operator--
PUBLIC	??E?$vec@$03C$01@glm@@QAE?AU01@H@Z		; glm::vec<4,signed char,2>::operator++
PUBLIC	??F?$vec@$03C$01@glm@@QAE?AU01@H@Z		; glm::vec<4,signed char,2>::operator--
PUBLIC	?length@?$vec@$03F$01@glm@@SAHXZ		; glm::vec<4,short,2>::length
PUBLIC	??A?$vec@$03F$01@glm@@QAEAAFH@Z			; glm::vec<4,short,2>::operator[]
PUBLIC	??A?$vec@$03F$01@glm@@QBEABFH@Z			; glm::vec<4,short,2>::operator[]
PUBLIC	??0?$vec@$03F$01@glm@@QAE@F@Z			; glm::vec<4,short,2>::vec<4,short,2>
PUBLIC	??0?$vec@$03F$01@glm@@QAE@FFFF@Z		; glm::vec<4,short,2>::vec<4,short,2>
PUBLIC	??E?$vec@$03F$01@glm@@QAEAAU01@XZ		; glm::vec<4,short,2>::operator++
PUBLIC	??F?$vec@$03F$01@glm@@QAEAAU01@XZ		; glm::vec<4,short,2>::operator--
PUBLIC	??E?$vec@$03F$01@glm@@QAE?AU01@H@Z		; glm::vec<4,short,2>::operator++
PUBLIC	??F?$vec@$03F$01@glm@@QAE?AU01@H@Z		; glm::vec<4,short,2>::operator--
PUBLIC	?length@?$vec@$03H$01@glm@@SAHXZ		; glm::vec<4,int,2>::length
PUBLIC	??A?$vec@$03H$01@glm@@QAEAAHH@Z			; glm::vec<4,int,2>::operator[]
PUBLIC	??A?$vec@$03H$01@glm@@QBEABHH@Z			; glm::vec<4,int,2>::operator[]
PUBLIC	??0?$vec@$03H$01@glm@@QAE@H@Z			; glm::vec<4,int,2>::vec<4,int,2>
PUBLIC	??0?$vec@$03H$01@glm@@QAE@HHHH@Z		; glm::vec<4,int,2>::vec<4,int,2>
PUBLIC	??E?$vec@$03H$01@glm@@QAEAAU01@XZ		; glm::vec<4,int,2>::operator++
PUBLIC	??F?$vec@$03H$01@glm@@QAEAAU01@XZ		; glm::vec<4,int,2>::operator--
PUBLIC	??E?$vec@$03H$01@glm@@QAE?AU01@H@Z		; glm::vec<4,int,2>::operator++
PUBLIC	??F?$vec@$03H$01@glm@@QAE?AU01@H@Z		; glm::vec<4,int,2>::operator--
PUBLIC	?length@?$vec@$03_J$01@glm@@SAHXZ		; glm::vec<4,__int64,2>::length
PUBLIC	??A?$vec@$03_J$01@glm@@QAEAA_JH@Z		; glm::vec<4,__int64,2>::operator[]
PUBLIC	??A?$vec@$03_J$01@glm@@QBEAB_JH@Z		; glm::vec<4,__int64,2>::operator[]
PUBLIC	??0?$vec@$03_J$01@glm@@QAE@_J@Z			; glm::vec<4,__int64,2>::vec<4,__int64,2>
PUBLIC	??0?$vec@$03_J$01@glm@@QAE@_J000@Z		; glm::vec<4,__int64,2>::vec<4,__int64,2>
PUBLIC	??E?$vec@$03_J$01@glm@@QAEAAU01@XZ		; glm::vec<4,__int64,2>::operator++
PUBLIC	??F?$vec@$03_J$01@glm@@QAEAAU01@XZ		; glm::vec<4,__int64,2>::operator--
PUBLIC	??E?$vec@$03_J$01@glm@@QAE?AU01@H@Z		; glm::vec<4,__int64,2>::operator++
PUBLIC	??F?$vec@$03_J$01@glm@@QAE?AU01@H@Z		; glm::vec<4,__int64,2>::operator--
PUBLIC	?length@?$vec@$03M$01@glm@@SAHXZ		; glm::vec<4,float,2>::length
PUBLIC	??A?$vec@$03M$01@glm@@QAEAAMH@Z			; glm::vec<4,float,2>::operator[]
PUBLIC	??A?$vec@$03M$01@glm@@QBEABMH@Z			; glm::vec<4,float,2>::operator[]
PUBLIC	??0?$vec@$03M$01@glm@@QAE@M@Z			; glm::vec<4,float,2>::vec<4,float,2>
PUBLIC	??0?$vec@$03M$01@glm@@QAE@MMMM@Z		; glm::vec<4,float,2>::vec<4,float,2>
PUBLIC	??E?$vec@$03M$01@glm@@QAEAAU01@XZ		; glm::vec<4,float,2>::operator++
PUBLIC	??F?$vec@$03M$01@glm@@QAEAAU01@XZ		; glm::vec<4,float,2>::operator--
PUBLIC	??E?$vec@$03M$01@glm@@QAE?AU01@H@Z		; glm::vec<4,float,2>::operator++
PUBLIC	??F?$vec@$03M$01@glm@@QAE?AU01@H@Z		; glm::vec<4,float,2>::operator--
PUBLIC	?length@?$vec@$03N$01@glm@@SAHXZ		; glm::vec<4,double,2>::length
PUBLIC	??A?$vec@$03N$01@glm@@QAEAANH@Z			; glm::vec<4,double,2>::operator[]
PUBLIC	??A?$vec@$03N$01@glm@@QBEABNH@Z			; glm::vec<4,double,2>::operator[]
PUBLIC	??0?$vec@$03N$01@glm@@QAE@N@Z			; glm::vec<4,double,2>::vec<4,double,2>
PUBLIC	??0?$vec@$03N$01@glm@@QAE@NNNN@Z		; glm::vec<4,double,2>::vec<4,double,2>
PUBLIC	??E?$vec@$03N$01@glm@@QAEAAU01@XZ		; glm::vec<4,double,2>::operator++
PUBLIC	??F?$vec@$03N$01@glm@@QAEAAU01@XZ		; glm::vec<4,double,2>::operator--
PUBLIC	??E?$vec@$03N$01@glm@@QAE?AU01@H@Z		; glm::vec<4,double,2>::operator++
PUBLIC	??F?$vec@$03N$01@glm@@QAE?AU01@H@Z		; glm::vec<4,double,2>::operator--
PUBLIC	?length@?$vec@$03E$00@glm@@SAHXZ		; glm::vec<4,unsigned char,1>::length
PUBLIC	??A?$vec@$03E$00@glm@@QAEAAEH@Z			; glm::vec<4,unsigned char,1>::operator[]
PUBLIC	??A?$vec@$03E$00@glm@@QBEABEH@Z			; glm::vec<4,unsigned char,1>::operator[]
PUBLIC	??0?$vec@$03E$00@glm@@QAE@E@Z			; glm::vec<4,unsigned char,1>::vec<4,unsigned char,1>
PUBLIC	??0?$vec@$03E$00@glm@@QAE@EEEE@Z		; glm::vec<4,unsigned char,1>::vec<4,unsigned char,1>
PUBLIC	??E?$vec@$03E$00@glm@@QAEAAU01@XZ		; glm::vec<4,unsigned char,1>::operator++
PUBLIC	??F?$vec@$03E$00@glm@@QAEAAU01@XZ		; glm::vec<4,unsigned char,1>::operator--
PUBLIC	??E?$vec@$03E$00@glm@@QAE?AU01@H@Z		; glm::vec<4,unsigned char,1>::operator++
PUBLIC	??F?$vec@$03E$00@glm@@QAE?AU01@H@Z		; glm::vec<4,unsigned char,1>::operator--
PUBLIC	?length@?$vec@$03G$00@glm@@SAHXZ		; glm::vec<4,unsigned short,1>::length
PUBLIC	??A?$vec@$03G$00@glm@@QAEAAGH@Z			; glm::vec<4,unsigned short,1>::operator[]
PUBLIC	??A?$vec@$03G$00@glm@@QBEABGH@Z			; glm::vec<4,unsigned short,1>::operator[]
PUBLIC	??0?$vec@$03G$00@glm@@QAE@G@Z			; glm::vec<4,unsigned short,1>::vec<4,unsigned short,1>
PUBLIC	??0?$vec@$03G$00@glm@@QAE@GGGG@Z		; glm::vec<4,unsigned short,1>::vec<4,unsigned short,1>
PUBLIC	??E?$vec@$03G$00@glm@@QAEAAU01@XZ		; glm::vec<4,unsigned short,1>::operator++
PUBLIC	??F?$vec@$03G$00@glm@@QAEAAU01@XZ		; glm::vec<4,unsigned short,1>::operator--
PUBLIC	??E?$vec@$03G$00@glm@@QAE?AU01@H@Z		; glm::vec<4,unsigned short,1>::operator++
PUBLIC	??F?$vec@$03G$00@glm@@QAE?AU01@H@Z		; glm::vec<4,unsigned short,1>::operator--
PUBLIC	?length@?$vec@$03I$00@glm@@SAHXZ		; glm::vec<4,unsigned int,1>::length
PUBLIC	??A?$vec@$03I$00@glm@@QAEAAIH@Z			; glm::vec<4,unsigned int,1>::operator[]
PUBLIC	??A?$vec@$03I$00@glm@@QBEABIH@Z			; glm::vec<4,unsigned int,1>::operator[]
PUBLIC	??0?$vec@$03I$00@glm@@QAE@I@Z			; glm::vec<4,unsigned int,1>::vec<4,unsigned int,1>
PUBLIC	??0?$vec@$03I$00@glm@@QAE@IIII@Z		; glm::vec<4,unsigned int,1>::vec<4,unsigned int,1>
PUBLIC	??E?$vec@$03I$00@glm@@QAEAAU01@XZ		; glm::vec<4,unsigned int,1>::operator++
PUBLIC	??F?$vec@$03I$00@glm@@QAEAAU01@XZ		; glm::vec<4,unsigned int,1>::operator--
PUBLIC	??E?$vec@$03I$00@glm@@QAE?AU01@H@Z		; glm::vec<4,unsigned int,1>::operator++
PUBLIC	??F?$vec@$03I$00@glm@@QAE?AU01@H@Z		; glm::vec<4,unsigned int,1>::operator--
PUBLIC	?length@?$vec@$03_K$00@glm@@SAHXZ		; glm::vec<4,unsigned __int64,1>::length
PUBLIC	??A?$vec@$03_K$00@glm@@QAEAA_KH@Z		; glm::vec<4,unsigned __int64,1>::operator[]
PUBLIC	??A?$vec@$03_K$00@glm@@QBEAB_KH@Z		; glm::vec<4,unsigned __int64,1>::operator[]
PUBLIC	??0?$vec@$03_K$00@glm@@QAE@_K@Z			; glm::vec<4,unsigned __int64,1>::vec<4,unsigned __int64,1>
PUBLIC	??0?$vec@$03_K$00@glm@@QAE@_K000@Z		; glm::vec<4,unsigned __int64,1>::vec<4,unsigned __int64,1>
PUBLIC	??E?$vec@$03_K$00@glm@@QAEAAU01@XZ		; glm::vec<4,unsigned __int64,1>::operator++
PUBLIC	??F?$vec@$03_K$00@glm@@QAEAAU01@XZ		; glm::vec<4,unsigned __int64,1>::operator--
PUBLIC	??E?$vec@$03_K$00@glm@@QAE?AU01@H@Z		; glm::vec<4,unsigned __int64,1>::operator++
PUBLIC	??F?$vec@$03_K$00@glm@@QAE?AU01@H@Z		; glm::vec<4,unsigned __int64,1>::operator--
PUBLIC	?length@?$vec@$03C$00@glm@@SAHXZ		; glm::vec<4,signed char,1>::length
PUBLIC	??A?$vec@$03C$00@glm@@QAEAACH@Z			; glm::vec<4,signed char,1>::operator[]
PUBLIC	??A?$vec@$03C$00@glm@@QBEABCH@Z			; glm::vec<4,signed char,1>::operator[]
PUBLIC	??0?$vec@$03C$00@glm@@QAE@C@Z			; glm::vec<4,signed char,1>::vec<4,signed char,1>
PUBLIC	??0?$vec@$03C$00@glm@@QAE@CCCC@Z		; glm::vec<4,signed char,1>::vec<4,signed char,1>
PUBLIC	??E?$vec@$03C$00@glm@@QAEAAU01@XZ		; glm::vec<4,signed char,1>::operator++
PUBLIC	??F?$vec@$03C$00@glm@@QAEAAU01@XZ		; glm::vec<4,signed char,1>::operator--
PUBLIC	??E?$vec@$03C$00@glm@@QAE?AU01@H@Z		; glm::vec<4,signed char,1>::operator++
PUBLIC	??F?$vec@$03C$00@glm@@QAE?AU01@H@Z		; glm::vec<4,signed char,1>::operator--
PUBLIC	?length@?$vec@$03F$00@glm@@SAHXZ		; glm::vec<4,short,1>::length
PUBLIC	??A?$vec@$03F$00@glm@@QAEAAFH@Z			; glm::vec<4,short,1>::operator[]
PUBLIC	??A?$vec@$03F$00@glm@@QBEABFH@Z			; glm::vec<4,short,1>::operator[]
PUBLIC	??0?$vec@$03F$00@glm@@QAE@F@Z			; glm::vec<4,short,1>::vec<4,short,1>
PUBLIC	??0?$vec@$03F$00@glm@@QAE@FFFF@Z		; glm::vec<4,short,1>::vec<4,short,1>
PUBLIC	??E?$vec@$03F$00@glm@@QAEAAU01@XZ		; glm::vec<4,short,1>::operator++
PUBLIC	??F?$vec@$03F$00@glm@@QAEAAU01@XZ		; glm::vec<4,short,1>::operator--
PUBLIC	??E?$vec@$03F$00@glm@@QAE?AU01@H@Z		; glm::vec<4,short,1>::operator++
PUBLIC	??F?$vec@$03F$00@glm@@QAE?AU01@H@Z		; glm::vec<4,short,1>::operator--
PUBLIC	?length@?$vec@$03H$00@glm@@SAHXZ		; glm::vec<4,int,1>::length
PUBLIC	??A?$vec@$03H$00@glm@@QAEAAHH@Z			; glm::vec<4,int,1>::operator[]
PUBLIC	??A?$vec@$03H$00@glm@@QBEABHH@Z			; glm::vec<4,int,1>::operator[]
PUBLIC	??0?$vec@$03H$00@glm@@QAE@H@Z			; glm::vec<4,int,1>::vec<4,int,1>
PUBLIC	??0?$vec@$03H$00@glm@@QAE@HHHH@Z		; glm::vec<4,int,1>::vec<4,int,1>
PUBLIC	??E?$vec@$03H$00@glm@@QAEAAU01@XZ		; glm::vec<4,int,1>::operator++
PUBLIC	??F?$vec@$03H$00@glm@@QAEAAU01@XZ		; glm::vec<4,int,1>::operator--
PUBLIC	??E?$vec@$03H$00@glm@@QAE?AU01@H@Z		; glm::vec<4,int,1>::operator++
PUBLIC	??F?$vec@$03H$00@glm@@QAE?AU01@H@Z		; glm::vec<4,int,1>::operator--
PUBLIC	?length@?$vec@$03_J$00@glm@@SAHXZ		; glm::vec<4,__int64,1>::length
PUBLIC	??A?$vec@$03_J$00@glm@@QAEAA_JH@Z		; glm::vec<4,__int64,1>::operator[]
PUBLIC	??A?$vec@$03_J$00@glm@@QBEAB_JH@Z		; glm::vec<4,__int64,1>::operator[]
PUBLIC	??0?$vec@$03_J$00@glm@@QAE@_J@Z			; glm::vec<4,__int64,1>::vec<4,__int64,1>
PUBLIC	??0?$vec@$03_J$00@glm@@QAE@_J000@Z		; glm::vec<4,__int64,1>::vec<4,__int64,1>
PUBLIC	??E?$vec@$03_J$00@glm@@QAEAAU01@XZ		; glm::vec<4,__int64,1>::operator++
PUBLIC	??F?$vec@$03_J$00@glm@@QAEAAU01@XZ		; glm::vec<4,__int64,1>::operator--
PUBLIC	??E?$vec@$03_J$00@glm@@QAE?AU01@H@Z		; glm::vec<4,__int64,1>::operator++
PUBLIC	??F?$vec@$03_J$00@glm@@QAE?AU01@H@Z		; glm::vec<4,__int64,1>::operator--
PUBLIC	?length@?$vec@$03M$00@glm@@SAHXZ		; glm::vec<4,float,1>::length
PUBLIC	??A?$vec@$03M$00@glm@@QAEAAMH@Z			; glm::vec<4,float,1>::operator[]
PUBLIC	??A?$vec@$03M$00@glm@@QBEABMH@Z			; glm::vec<4,float,1>::operator[]
PUBLIC	??0?$vec@$03M$00@glm@@QAE@M@Z			; glm::vec<4,float,1>::vec<4,float,1>
PUBLIC	??0?$vec@$03M$00@glm@@QAE@MMMM@Z		; glm::vec<4,float,1>::vec<4,float,1>
PUBLIC	??E?$vec@$03M$00@glm@@QAEAAU01@XZ		; glm::vec<4,float,1>::operator++
PUBLIC	??F?$vec@$03M$00@glm@@QAEAAU01@XZ		; glm::vec<4,float,1>::operator--
PUBLIC	??E?$vec@$03M$00@glm@@QAE?AU01@H@Z		; glm::vec<4,float,1>::operator++
PUBLIC	??F?$vec@$03M$00@glm@@QAE?AU01@H@Z		; glm::vec<4,float,1>::operator--
PUBLIC	?length@?$vec@$03N$00@glm@@SAHXZ		; glm::vec<4,double,1>::length
PUBLIC	??A?$vec@$03N$00@glm@@QAEAANH@Z			; glm::vec<4,double,1>::operator[]
PUBLIC	??A?$vec@$03N$00@glm@@QBEABNH@Z			; glm::vec<4,double,1>::operator[]
PUBLIC	??0?$vec@$03N$00@glm@@QAE@N@Z			; glm::vec<4,double,1>::vec<4,double,1>
PUBLIC	??0?$vec@$03N$00@glm@@QAE@NNNN@Z		; glm::vec<4,double,1>::vec<4,double,1>
PUBLIC	??E?$vec@$03N$00@glm@@QAEAAU01@XZ		; glm::vec<4,double,1>::operator++
PUBLIC	??F?$vec@$03N$00@glm@@QAEAAU01@XZ		; glm::vec<4,double,1>::operator--
PUBLIC	??E?$vec@$03N$00@glm@@QAE?AU01@H@Z		; glm::vec<4,double,1>::operator++
PUBLIC	??F?$vec@$03N$00@glm@@QAE?AU01@H@Z		; glm::vec<4,double,1>::operator--
PUBLIC	?length@?$vec@$03G$0A@@glm@@SAHXZ		; glm::vec<4,unsigned short,0>::length
PUBLIC	??A?$vec@$03G$0A@@glm@@QAEAAGH@Z		; glm::vec<4,unsigned short,0>::operator[]
PUBLIC	??A?$vec@$03G$0A@@glm@@QBEABGH@Z		; glm::vec<4,unsigned short,0>::operator[]
PUBLIC	??0?$vec@$03G$0A@@glm@@QAE@G@Z			; glm::vec<4,unsigned short,0>::vec<4,unsigned short,0>
PUBLIC	??0?$vec@$03G$0A@@glm@@QAE@GGGG@Z		; glm::vec<4,unsigned short,0>::vec<4,unsigned short,0>
PUBLIC	??E?$vec@$03G$0A@@glm@@QAEAAU01@XZ		; glm::vec<4,unsigned short,0>::operator++
PUBLIC	??F?$vec@$03G$0A@@glm@@QAEAAU01@XZ		; glm::vec<4,unsigned short,0>::operator--
PUBLIC	??E?$vec@$03G$0A@@glm@@QAE?AU01@H@Z		; glm::vec<4,unsigned short,0>::operator++
PUBLIC	??F?$vec@$03G$0A@@glm@@QAE?AU01@H@Z		; glm::vec<4,unsigned short,0>::operator--
PUBLIC	?length@?$vec@$03I$0A@@glm@@SAHXZ		; glm::vec<4,unsigned int,0>::length
PUBLIC	??A?$vec@$03I$0A@@glm@@QAEAAIH@Z		; glm::vec<4,unsigned int,0>::operator[]
PUBLIC	??A?$vec@$03I$0A@@glm@@QBEABIH@Z		; glm::vec<4,unsigned int,0>::operator[]
PUBLIC	??0?$vec@$03I$0A@@glm@@QAE@I@Z			; glm::vec<4,unsigned int,0>::vec<4,unsigned int,0>
PUBLIC	??0?$vec@$03I$0A@@glm@@QAE@IIII@Z		; glm::vec<4,unsigned int,0>::vec<4,unsigned int,0>
PUBLIC	??E?$vec@$03I$0A@@glm@@QAEAAU01@XZ		; glm::vec<4,unsigned int,0>::operator++
PUBLIC	??F?$vec@$03I$0A@@glm@@QAEAAU01@XZ		; glm::vec<4,unsigned int,0>::operator--
PUBLIC	??E?$vec@$03I$0A@@glm@@QAE?AU01@H@Z		; glm::vec<4,unsigned int,0>::operator++
PUBLIC	??F?$vec@$03I$0A@@glm@@QAE?AU01@H@Z		; glm::vec<4,unsigned int,0>::operator--
PUBLIC	?length@?$vec@$03_K$0A@@glm@@SAHXZ		; glm::vec<4,unsigned __int64,0>::length
PUBLIC	??A?$vec@$03_K$0A@@glm@@QAEAA_KH@Z		; glm::vec<4,unsigned __int64,0>::operator[]
PUBLIC	??A?$vec@$03_K$0A@@glm@@QBEAB_KH@Z		; glm::vec<4,unsigned __int64,0>::operator[]
PUBLIC	??0?$vec@$03_K$0A@@glm@@QAE@_K@Z		; glm::vec<4,unsigned __int64,0>::vec<4,unsigned __int64,0>
PUBLIC	??0?$vec@$03_K$0A@@glm@@QAE@_K000@Z		; glm::vec<4,unsigned __int64,0>::vec<4,unsigned __int64,0>
PUBLIC	??E?$vec@$03_K$0A@@glm@@QAEAAU01@XZ		; glm::vec<4,unsigned __int64,0>::operator++
PUBLIC	??F?$vec@$03_K$0A@@glm@@QAEAAU01@XZ		; glm::vec<4,unsigned __int64,0>::operator--
PUBLIC	??E?$vec@$03_K$0A@@glm@@QAE?AU01@H@Z		; glm::vec<4,unsigned __int64,0>::operator++
PUBLIC	??F?$vec@$03_K$0A@@glm@@QAE?AU01@H@Z		; glm::vec<4,unsigned __int64,0>::operator--
PUBLIC	?length@?$vec@$03F$0A@@glm@@SAHXZ		; glm::vec<4,short,0>::length
PUBLIC	??A?$vec@$03F$0A@@glm@@QAEAAFH@Z		; glm::vec<4,short,0>::operator[]
PUBLIC	??A?$vec@$03F$0A@@glm@@QBEABFH@Z		; glm::vec<4,short,0>::operator[]
PUBLIC	??0?$vec@$03F$0A@@glm@@QAE@F@Z			; glm::vec<4,short,0>::vec<4,short,0>
PUBLIC	??0?$vec@$03F$0A@@glm@@QAE@FFFF@Z		; glm::vec<4,short,0>::vec<4,short,0>
PUBLIC	??E?$vec@$03F$0A@@glm@@QAEAAU01@XZ		; glm::vec<4,short,0>::operator++
PUBLIC	??F?$vec@$03F$0A@@glm@@QAEAAU01@XZ		; glm::vec<4,short,0>::operator--
PUBLIC	??E?$vec@$03F$0A@@glm@@QAE?AU01@H@Z		; glm::vec<4,short,0>::operator++
PUBLIC	??F?$vec@$03F$0A@@glm@@QAE?AU01@H@Z		; glm::vec<4,short,0>::operator--
PUBLIC	?length@?$vec@$03H$0A@@glm@@SAHXZ		; glm::vec<4,int,0>::length
PUBLIC	??A?$vec@$03H$0A@@glm@@QAEAAHH@Z		; glm::vec<4,int,0>::operator[]
PUBLIC	??A?$vec@$03H$0A@@glm@@QBEABHH@Z		; glm::vec<4,int,0>::operator[]
PUBLIC	??0?$vec@$03H$0A@@glm@@QAE@H@Z			; glm::vec<4,int,0>::vec<4,int,0>
PUBLIC	??0?$vec@$03H$0A@@glm@@QAE@HHHH@Z		; glm::vec<4,int,0>::vec<4,int,0>
PUBLIC	??E?$vec@$03H$0A@@glm@@QAEAAU01@XZ		; glm::vec<4,int,0>::operator++
PUBLIC	??F?$vec@$03H$0A@@glm@@QAEAAU01@XZ		; glm::vec<4,int,0>::operator--
PUBLIC	??E?$vec@$03H$0A@@glm@@QAE?AU01@H@Z		; glm::vec<4,int,0>::operator++
PUBLIC	??F?$vec@$03H$0A@@glm@@QAE?AU01@H@Z		; glm::vec<4,int,0>::operator--
PUBLIC	?length@?$vec@$03_J$0A@@glm@@SAHXZ		; glm::vec<4,__int64,0>::length
PUBLIC	??A?$vec@$03_J$0A@@glm@@QAEAA_JH@Z		; glm::vec<4,__int64,0>::operator[]
PUBLIC	??A?$vec@$03_J$0A@@glm@@QBEAB_JH@Z		; glm::vec<4,__int64,0>::operator[]
PUBLIC	??0?$vec@$03_J$0A@@glm@@QAE@_J@Z		; glm::vec<4,__int64,0>::vec<4,__int64,0>
PUBLIC	??0?$vec@$03_J$0A@@glm@@QAE@_J000@Z		; glm::vec<4,__int64,0>::vec<4,__int64,0>
PUBLIC	??E?$vec@$03_J$0A@@glm@@QAEAAU01@XZ		; glm::vec<4,__int64,0>::operator++
PUBLIC	??F?$vec@$03_J$0A@@glm@@QAEAAU01@XZ		; glm::vec<4,__int64,0>::operator--
PUBLIC	??E?$vec@$03_J$0A@@glm@@QAE?AU01@H@Z		; glm::vec<4,__int64,0>::operator++
PUBLIC	??F?$vec@$03_J$0A@@glm@@QAE?AU01@H@Z		; glm::vec<4,__int64,0>::operator--
PUBLIC	?length@?$vec@$03N$0A@@glm@@SAHXZ		; glm::vec<4,double,0>::length
PUBLIC	??A?$vec@$03N$0A@@glm@@QAEAANH@Z		; glm::vec<4,double,0>::operator[]
PUBLIC	??A?$vec@$03N$0A@@glm@@QBEABNH@Z		; glm::vec<4,double,0>::operator[]
PUBLIC	??0?$vec@$03N$0A@@glm@@QAE@N@Z			; glm::vec<4,double,0>::vec<4,double,0>
PUBLIC	??0?$vec@$03N$0A@@glm@@QAE@NNNN@Z		; glm::vec<4,double,0>::vec<4,double,0>
PUBLIC	??E?$vec@$03N$0A@@glm@@QAEAAU01@XZ		; glm::vec<4,double,0>::operator++
PUBLIC	??F?$vec@$03N$0A@@glm@@QAEAAU01@XZ		; glm::vec<4,double,0>::operator--
PUBLIC	??E?$vec@$03N$0A@@glm@@QAE?AU01@H@Z		; glm::vec<4,double,0>::operator++
PUBLIC	??F?$vec@$03N$0A@@glm@@QAE?AU01@H@Z		; glm::vec<4,double,0>::operator--
PUBLIC	?length@?$mat@$01$01M$01@glm@@SAHXZ		; glm::mat<2,2,float,2>::length
PUBLIC	??A?$mat@$01$01M$01@glm@@QAEAAU?$vec@$01M$01@1@H@Z ; glm::mat<2,2,float,2>::operator[]
PUBLIC	??A?$mat@$01$01M$01@glm@@QBEABU?$vec@$01M$01@1@H@Z ; glm::mat<2,2,float,2>::operator[]
PUBLIC	??0?$mat@$01$01M$01@glm@@QAE@M@Z		; glm::mat<2,2,float,2>::mat<2,2,float,2>
PUBLIC	??0?$mat@$01$01M$01@glm@@QAE@ABM000@Z		; glm::mat<2,2,float,2>::mat<2,2,float,2>
PUBLIC	??0?$mat@$01$01M$01@glm@@QAE@ABU?$vec@$01M$01@1@0@Z ; glm::mat<2,2,float,2>::mat<2,2,float,2>
PUBLIC	??0?$mat@$01$01M$01@glm@@QAE@ABU?$mat@$02$02M$01@1@@Z ; glm::mat<2,2,float,2>::mat<2,2,float,2>
PUBLIC	??0?$mat@$01$01M$01@glm@@QAE@ABU?$mat@$03$03M$01@1@@Z ; glm::mat<2,2,float,2>::mat<2,2,float,2>
PUBLIC	??0?$mat@$01$01M$01@glm@@QAE@ABU?$mat@$01$02M$01@1@@Z ; glm::mat<2,2,float,2>::mat<2,2,float,2>
PUBLIC	??0?$mat@$01$01M$01@glm@@QAE@ABU?$mat@$02$01M$01@1@@Z ; glm::mat<2,2,float,2>::mat<2,2,float,2>
PUBLIC	??0?$mat@$01$01M$01@glm@@QAE@ABU?$mat@$01$03M$01@1@@Z ; glm::mat<2,2,float,2>::mat<2,2,float,2>
PUBLIC	??0?$mat@$01$01M$01@glm@@QAE@ABU?$mat@$03$01M$01@1@@Z ; glm::mat<2,2,float,2>::mat<2,2,float,2>
PUBLIC	??0?$mat@$01$01M$01@glm@@QAE@ABU?$mat@$02$03M$01@1@@Z ; glm::mat<2,2,float,2>::mat<2,2,float,2>
PUBLIC	??0?$mat@$01$01M$01@glm@@QAE@ABU?$mat@$03$02M$01@1@@Z ; glm::mat<2,2,float,2>::mat<2,2,float,2>
PUBLIC	??E?$mat@$01$01M$01@glm@@QAEAAU01@XZ		; glm::mat<2,2,float,2>::operator++
PUBLIC	??F?$mat@$01$01M$01@glm@@QAEAAU01@XZ		; glm::mat<2,2,float,2>::operator--
PUBLIC	??E?$mat@$01$01M$01@glm@@QAE?AU01@H@Z		; glm::mat<2,2,float,2>::operator++
PUBLIC	??F?$mat@$01$01M$01@glm@@QAE?AU01@H@Z		; glm::mat<2,2,float,2>::operator--
PUBLIC	?length@?$mat@$01$01N$01@glm@@SAHXZ		; glm::mat<2,2,double,2>::length
PUBLIC	??A?$mat@$01$01N$01@glm@@QAEAAU?$vec@$01N$01@1@H@Z ; glm::mat<2,2,double,2>::operator[]
PUBLIC	??A?$mat@$01$01N$01@glm@@QBEABU?$vec@$01N$01@1@H@Z ; glm::mat<2,2,double,2>::operator[]
PUBLIC	??0?$mat@$01$01N$01@glm@@QAE@N@Z		; glm::mat<2,2,double,2>::mat<2,2,double,2>
PUBLIC	??0?$mat@$01$01N$01@glm@@QAE@ABN000@Z		; glm::mat<2,2,double,2>::mat<2,2,double,2>
PUBLIC	??0?$mat@$01$01N$01@glm@@QAE@ABU?$vec@$01N$01@1@0@Z ; glm::mat<2,2,double,2>::mat<2,2,double,2>
PUBLIC	??0?$mat@$01$01N$01@glm@@QAE@ABU?$mat@$02$02N$01@1@@Z ; glm::mat<2,2,double,2>::mat<2,2,double,2>
PUBLIC	??0?$mat@$01$01N$01@glm@@QAE@ABU?$mat@$03$03N$01@1@@Z ; glm::mat<2,2,double,2>::mat<2,2,double,2>
PUBLIC	??0?$mat@$01$01N$01@glm@@QAE@ABU?$mat@$01$02N$01@1@@Z ; glm::mat<2,2,double,2>::mat<2,2,double,2>
PUBLIC	??0?$mat@$01$01N$01@glm@@QAE@ABU?$mat@$02$01N$01@1@@Z ; glm::mat<2,2,double,2>::mat<2,2,double,2>
PUBLIC	??0?$mat@$01$01N$01@glm@@QAE@ABU?$mat@$01$03N$01@1@@Z ; glm::mat<2,2,double,2>::mat<2,2,double,2>
PUBLIC	??0?$mat@$01$01N$01@glm@@QAE@ABU?$mat@$03$01N$01@1@@Z ; glm::mat<2,2,double,2>::mat<2,2,double,2>
PUBLIC	??0?$mat@$01$01N$01@glm@@QAE@ABU?$mat@$02$03N$01@1@@Z ; glm::mat<2,2,double,2>::mat<2,2,double,2>
PUBLIC	??0?$mat@$01$01N$01@glm@@QAE@ABU?$mat@$03$02N$01@1@@Z ; glm::mat<2,2,double,2>::mat<2,2,double,2>
PUBLIC	??E?$mat@$01$01N$01@glm@@QAEAAU01@XZ		; glm::mat<2,2,double,2>::operator++
PUBLIC	??F?$mat@$01$01N$01@glm@@QAEAAU01@XZ		; glm::mat<2,2,double,2>::operator--
PUBLIC	??E?$mat@$01$01N$01@glm@@QAE?AU01@H@Z		; glm::mat<2,2,double,2>::operator++
PUBLIC	??F?$mat@$01$01N$01@glm@@QAE?AU01@H@Z		; glm::mat<2,2,double,2>::operator--
PUBLIC	?length@?$mat@$01$01M$00@glm@@SAHXZ		; glm::mat<2,2,float,1>::length
PUBLIC	??A?$mat@$01$01M$00@glm@@QAEAAU?$vec@$01M$00@1@H@Z ; glm::mat<2,2,float,1>::operator[]
PUBLIC	??A?$mat@$01$01M$00@glm@@QBEABU?$vec@$01M$00@1@H@Z ; glm::mat<2,2,float,1>::operator[]
PUBLIC	??0?$mat@$01$01M$00@glm@@QAE@M@Z		; glm::mat<2,2,float,1>::mat<2,2,float,1>
PUBLIC	??0?$mat@$01$01M$00@glm@@QAE@ABM000@Z		; glm::mat<2,2,float,1>::mat<2,2,float,1>
PUBLIC	??0?$mat@$01$01M$00@glm@@QAE@ABU?$vec@$01M$00@1@0@Z ; glm::mat<2,2,float,1>::mat<2,2,float,1>
PUBLIC	??0?$mat@$01$01M$00@glm@@QAE@ABU?$mat@$02$02M$00@1@@Z ; glm::mat<2,2,float,1>::mat<2,2,float,1>
PUBLIC	??0?$mat@$01$01M$00@glm@@QAE@ABU?$mat@$03$03M$00@1@@Z ; glm::mat<2,2,float,1>::mat<2,2,float,1>
PUBLIC	??0?$mat@$01$01M$00@glm@@QAE@ABU?$mat@$01$02M$00@1@@Z ; glm::mat<2,2,float,1>::mat<2,2,float,1>
PUBLIC	??0?$mat@$01$01M$00@glm@@QAE@ABU?$mat@$02$01M$00@1@@Z ; glm::mat<2,2,float,1>::mat<2,2,float,1>
PUBLIC	??0?$mat@$01$01M$00@glm@@QAE@ABU?$mat@$01$03M$00@1@@Z ; glm::mat<2,2,float,1>::mat<2,2,float,1>
PUBLIC	??0?$mat@$01$01M$00@glm@@QAE@ABU?$mat@$03$01M$00@1@@Z ; glm::mat<2,2,float,1>::mat<2,2,float,1>
PUBLIC	??0?$mat@$01$01M$00@glm@@QAE@ABU?$mat@$02$03M$00@1@@Z ; glm::mat<2,2,float,1>::mat<2,2,float,1>
PUBLIC	??0?$mat@$01$01M$00@glm@@QAE@ABU?$mat@$03$02M$00@1@@Z ; glm::mat<2,2,float,1>::mat<2,2,float,1>
PUBLIC	??E?$mat@$01$01M$00@glm@@QAEAAU01@XZ		; glm::mat<2,2,float,1>::operator++
PUBLIC	??F?$mat@$01$01M$00@glm@@QAEAAU01@XZ		; glm::mat<2,2,float,1>::operator--
PUBLIC	??E?$mat@$01$01M$00@glm@@QAE?AU01@H@Z		; glm::mat<2,2,float,1>::operator++
PUBLIC	??F?$mat@$01$01M$00@glm@@QAE?AU01@H@Z		; glm::mat<2,2,float,1>::operator--
PUBLIC	?length@?$mat@$01$01N$00@glm@@SAHXZ		; glm::mat<2,2,double,1>::length
PUBLIC	??A?$mat@$01$01N$00@glm@@QAEAAU?$vec@$01N$00@1@H@Z ; glm::mat<2,2,double,1>::operator[]
PUBLIC	??A?$mat@$01$01N$00@glm@@QBEABU?$vec@$01N$00@1@H@Z ; glm::mat<2,2,double,1>::operator[]
PUBLIC	??0?$mat@$01$01N$00@glm@@QAE@N@Z		; glm::mat<2,2,double,1>::mat<2,2,double,1>
PUBLIC	??0?$mat@$01$01N$00@glm@@QAE@ABN000@Z		; glm::mat<2,2,double,1>::mat<2,2,double,1>
PUBLIC	??0?$mat@$01$01N$00@glm@@QAE@ABU?$vec@$01N$00@1@0@Z ; glm::mat<2,2,double,1>::mat<2,2,double,1>
PUBLIC	??0?$mat@$01$01N$00@glm@@QAE@ABU?$mat@$02$02N$00@1@@Z ; glm::mat<2,2,double,1>::mat<2,2,double,1>
PUBLIC	??0?$mat@$01$01N$00@glm@@QAE@ABU?$mat@$03$03N$00@1@@Z ; glm::mat<2,2,double,1>::mat<2,2,double,1>
PUBLIC	??0?$mat@$01$01N$00@glm@@QAE@ABU?$mat@$01$02N$00@1@@Z ; glm::mat<2,2,double,1>::mat<2,2,double,1>
PUBLIC	??0?$mat@$01$01N$00@glm@@QAE@ABU?$mat@$02$01N$00@1@@Z ; glm::mat<2,2,double,1>::mat<2,2,double,1>
PUBLIC	??0?$mat@$01$01N$00@glm@@QAE@ABU?$mat@$01$03N$00@1@@Z ; glm::mat<2,2,double,1>::mat<2,2,double,1>
PUBLIC	??0?$mat@$01$01N$00@glm@@QAE@ABU?$mat@$03$01N$00@1@@Z ; glm::mat<2,2,double,1>::mat<2,2,double,1>
PUBLIC	??0?$mat@$01$01N$00@glm@@QAE@ABU?$mat@$02$03N$00@1@@Z ; glm::mat<2,2,double,1>::mat<2,2,double,1>
PUBLIC	??0?$mat@$01$01N$00@glm@@QAE@ABU?$mat@$03$02N$00@1@@Z ; glm::mat<2,2,double,1>::mat<2,2,double,1>
PUBLIC	??E?$mat@$01$01N$00@glm@@QAEAAU01@XZ		; glm::mat<2,2,double,1>::operator++
PUBLIC	??F?$mat@$01$01N$00@glm@@QAEAAU01@XZ		; glm::mat<2,2,double,1>::operator--
PUBLIC	??E?$mat@$01$01N$00@glm@@QAE?AU01@H@Z		; glm::mat<2,2,double,1>::operator++
PUBLIC	??F?$mat@$01$01N$00@glm@@QAE?AU01@H@Z		; glm::mat<2,2,double,1>::operator--
PUBLIC	?length@?$mat@$01$01M$0A@@glm@@SAHXZ		; glm::mat<2,2,float,0>::length
PUBLIC	??A?$mat@$01$01M$0A@@glm@@QAEAAU?$vec@$01M$0A@@1@H@Z ; glm::mat<2,2,float,0>::operator[]
PUBLIC	??A?$mat@$01$01M$0A@@glm@@QBEABU?$vec@$01M$0A@@1@H@Z ; glm::mat<2,2,float,0>::operator[]
PUBLIC	??0?$mat@$01$01M$0A@@glm@@QAE@M@Z		; glm::mat<2,2,float,0>::mat<2,2,float,0>
PUBLIC	??0?$mat@$01$01M$0A@@glm@@QAE@ABM000@Z		; glm::mat<2,2,float,0>::mat<2,2,float,0>
PUBLIC	??0?$mat@$01$01M$0A@@glm@@QAE@ABU?$vec@$01M$0A@@1@0@Z ; glm::mat<2,2,float,0>::mat<2,2,float,0>
PUBLIC	??0?$mat@$01$01M$0A@@glm@@QAE@ABU?$mat@$02$02M$0A@@1@@Z ; glm::mat<2,2,float,0>::mat<2,2,float,0>
PUBLIC	??0?$mat@$01$01M$0A@@glm@@QAE@ABU?$mat@$03$03M$0A@@1@@Z ; glm::mat<2,2,float,0>::mat<2,2,float,0>
PUBLIC	??0?$mat@$01$01M$0A@@glm@@QAE@ABU?$mat@$01$02M$0A@@1@@Z ; glm::mat<2,2,float,0>::mat<2,2,float,0>
PUBLIC	??0?$mat@$01$01M$0A@@glm@@QAE@ABU?$mat@$02$01M$0A@@1@@Z ; glm::mat<2,2,float,0>::mat<2,2,float,0>
PUBLIC	??0?$mat@$01$01M$0A@@glm@@QAE@ABU?$mat@$01$03M$0A@@1@@Z ; glm::mat<2,2,float,0>::mat<2,2,float,0>
PUBLIC	??0?$mat@$01$01M$0A@@glm@@QAE@ABU?$mat@$03$01M$0A@@1@@Z ; glm::mat<2,2,float,0>::mat<2,2,float,0>
PUBLIC	??0?$mat@$01$01M$0A@@glm@@QAE@ABU?$mat@$02$03M$0A@@1@@Z ; glm::mat<2,2,float,0>::mat<2,2,float,0>
PUBLIC	??0?$mat@$01$01M$0A@@glm@@QAE@ABU?$mat@$03$02M$0A@@1@@Z ; glm::mat<2,2,float,0>::mat<2,2,float,0>
PUBLIC	??E?$mat@$01$01M$0A@@glm@@QAEAAU01@XZ		; glm::mat<2,2,float,0>::operator++
PUBLIC	??F?$mat@$01$01M$0A@@glm@@QAEAAU01@XZ		; glm::mat<2,2,float,0>::operator--
PUBLIC	??E?$mat@$01$01M$0A@@glm@@QAE?AU01@H@Z		; glm::mat<2,2,float,0>::operator++
PUBLIC	??F?$mat@$01$01M$0A@@glm@@QAE?AU01@H@Z		; glm::mat<2,2,float,0>::operator--
PUBLIC	?length@?$mat@$01$01N$0A@@glm@@SAHXZ		; glm::mat<2,2,double,0>::length
PUBLIC	??A?$mat@$01$01N$0A@@glm@@QAEAAU?$vec@$01N$0A@@1@H@Z ; glm::mat<2,2,double,0>::operator[]
PUBLIC	??A?$mat@$01$01N$0A@@glm@@QBEABU?$vec@$01N$0A@@1@H@Z ; glm::mat<2,2,double,0>::operator[]
PUBLIC	??0?$mat@$01$01N$0A@@glm@@QAE@N@Z		; glm::mat<2,2,double,0>::mat<2,2,double,0>
PUBLIC	??0?$mat@$01$01N$0A@@glm@@QAE@ABN000@Z		; glm::mat<2,2,double,0>::mat<2,2,double,0>
PUBLIC	??0?$mat@$01$01N$0A@@glm@@QAE@ABU?$vec@$01N$0A@@1@0@Z ; glm::mat<2,2,double,0>::mat<2,2,double,0>
PUBLIC	??0?$mat@$01$01N$0A@@glm@@QAE@ABU?$mat@$02$02N$0A@@1@@Z ; glm::mat<2,2,double,0>::mat<2,2,double,0>
PUBLIC	??0?$mat@$01$01N$0A@@glm@@QAE@ABU?$mat@$03$03N$0A@@1@@Z ; glm::mat<2,2,double,0>::mat<2,2,double,0>
PUBLIC	??0?$mat@$01$01N$0A@@glm@@QAE@ABU?$mat@$01$02N$0A@@1@@Z ; glm::mat<2,2,double,0>::mat<2,2,double,0>
PUBLIC	??0?$mat@$01$01N$0A@@glm@@QAE@ABU?$mat@$02$01N$0A@@1@@Z ; glm::mat<2,2,double,0>::mat<2,2,double,0>
PUBLIC	??0?$mat@$01$01N$0A@@glm@@QAE@ABU?$mat@$01$03N$0A@@1@@Z ; glm::mat<2,2,double,0>::mat<2,2,double,0>
PUBLIC	??0?$mat@$01$01N$0A@@glm@@QAE@ABU?$mat@$03$01N$0A@@1@@Z ; glm::mat<2,2,double,0>::mat<2,2,double,0>
PUBLIC	??0?$mat@$01$01N$0A@@glm@@QAE@ABU?$mat@$02$03N$0A@@1@@Z ; glm::mat<2,2,double,0>::mat<2,2,double,0>
PUBLIC	??0?$mat@$01$01N$0A@@glm@@QAE@ABU?$mat@$03$02N$0A@@1@@Z ; glm::mat<2,2,double,0>::mat<2,2,double,0>
PUBLIC	??E?$mat@$01$01N$0A@@glm@@QAEAAU01@XZ		; glm::mat<2,2,double,0>::operator++
PUBLIC	??F?$mat@$01$01N$0A@@glm@@QAEAAU01@XZ		; glm::mat<2,2,double,0>::operator--
PUBLIC	??E?$mat@$01$01N$0A@@glm@@QAE?AU01@H@Z		; glm::mat<2,2,double,0>::operator++
PUBLIC	??F?$mat@$01$01N$0A@@glm@@QAE?AU01@H@Z		; glm::mat<2,2,double,0>::operator--
PUBLIC	?length@?$mat@$01$02M$01@glm@@SAHXZ		; glm::mat<2,3,float,2>::length
PUBLIC	??A?$mat@$01$02M$01@glm@@QAEAAU?$vec@$02M$01@1@H@Z ; glm::mat<2,3,float,2>::operator[]
PUBLIC	??A?$mat@$01$02M$01@glm@@QBEABU?$vec@$02M$01@1@H@Z ; glm::mat<2,3,float,2>::operator[]
PUBLIC	??0?$mat@$01$02M$01@glm@@QAE@M@Z		; glm::mat<2,3,float,2>::mat<2,3,float,2>
PUBLIC	??0?$mat@$01$02M$01@glm@@QAE@MMMMMM@Z		; glm::mat<2,3,float,2>::mat<2,3,float,2>
PUBLIC	??0?$mat@$01$02M$01@glm@@QAE@ABU?$vec@$02M$01@1@0@Z ; glm::mat<2,3,float,2>::mat<2,3,float,2>
PUBLIC	??0?$mat@$01$02M$01@glm@@QAE@ABU?$mat@$01$01M$01@1@@Z ; glm::mat<2,3,float,2>::mat<2,3,float,2>
PUBLIC	??0?$mat@$01$02M$01@glm@@QAE@ABU?$mat@$02$02M$01@1@@Z ; glm::mat<2,3,float,2>::mat<2,3,float,2>
PUBLIC	??0?$mat@$01$02M$01@glm@@QAE@ABU?$mat@$03$03M$01@1@@Z ; glm::mat<2,3,float,2>::mat<2,3,float,2>
PUBLIC	??0?$mat@$01$02M$01@glm@@QAE@ABU?$mat@$01$03M$01@1@@Z ; glm::mat<2,3,float,2>::mat<2,3,float,2>
PUBLIC	??0?$mat@$01$02M$01@glm@@QAE@ABU?$mat@$02$01M$01@1@@Z ; glm::mat<2,3,float,2>::mat<2,3,float,2>
PUBLIC	??0?$mat@$01$02M$01@glm@@QAE@ABU?$mat@$02$03M$01@1@@Z ; glm::mat<2,3,float,2>::mat<2,3,float,2>
PUBLIC	??0?$mat@$01$02M$01@glm@@QAE@ABU?$mat@$03$01M$01@1@@Z ; glm::mat<2,3,float,2>::mat<2,3,float,2>
PUBLIC	??0?$mat@$01$02M$01@glm@@QAE@ABU?$mat@$03$02M$01@1@@Z ; glm::mat<2,3,float,2>::mat<2,3,float,2>
PUBLIC	??E?$mat@$01$02M$01@glm@@QAEAAU01@XZ		; glm::mat<2,3,float,2>::operator++
PUBLIC	??F?$mat@$01$02M$01@glm@@QAEAAU01@XZ		; glm::mat<2,3,float,2>::operator--
PUBLIC	??E?$mat@$01$02M$01@glm@@QAE?AU01@H@Z		; glm::mat<2,3,float,2>::operator++
PUBLIC	??F?$mat@$01$02M$01@glm@@QAE?AU01@H@Z		; glm::mat<2,3,float,2>::operator--
PUBLIC	?length@?$mat@$01$02N$01@glm@@SAHXZ		; glm::mat<2,3,double,2>::length
PUBLIC	??A?$mat@$01$02N$01@glm@@QAEAAU?$vec@$02N$01@1@H@Z ; glm::mat<2,3,double,2>::operator[]
PUBLIC	??A?$mat@$01$02N$01@glm@@QBEABU?$vec@$02N$01@1@H@Z ; glm::mat<2,3,double,2>::operator[]
PUBLIC	??0?$mat@$01$02N$01@glm@@QAE@N@Z		; glm::mat<2,3,double,2>::mat<2,3,double,2>
PUBLIC	??0?$mat@$01$02N$01@glm@@QAE@NNNNNN@Z		; glm::mat<2,3,double,2>::mat<2,3,double,2>
PUBLIC	??0?$mat@$01$02N$01@glm@@QAE@ABU?$vec@$02N$01@1@0@Z ; glm::mat<2,3,double,2>::mat<2,3,double,2>
PUBLIC	??0?$mat@$01$02N$01@glm@@QAE@ABU?$mat@$01$01N$01@1@@Z ; glm::mat<2,3,double,2>::mat<2,3,double,2>
PUBLIC	??0?$mat@$01$02N$01@glm@@QAE@ABU?$mat@$02$02N$01@1@@Z ; glm::mat<2,3,double,2>::mat<2,3,double,2>
PUBLIC	??0?$mat@$01$02N$01@glm@@QAE@ABU?$mat@$03$03N$01@1@@Z ; glm::mat<2,3,double,2>::mat<2,3,double,2>
PUBLIC	??0?$mat@$01$02N$01@glm@@QAE@ABU?$mat@$01$03N$01@1@@Z ; glm::mat<2,3,double,2>::mat<2,3,double,2>
PUBLIC	??0?$mat@$01$02N$01@glm@@QAE@ABU?$mat@$02$01N$01@1@@Z ; glm::mat<2,3,double,2>::mat<2,3,double,2>
PUBLIC	??0?$mat@$01$02N$01@glm@@QAE@ABU?$mat@$02$03N$01@1@@Z ; glm::mat<2,3,double,2>::mat<2,3,double,2>
PUBLIC	??0?$mat@$01$02N$01@glm@@QAE@ABU?$mat@$03$01N$01@1@@Z ; glm::mat<2,3,double,2>::mat<2,3,double,2>
PUBLIC	??0?$mat@$01$02N$01@glm@@QAE@ABU?$mat@$03$02N$01@1@@Z ; glm::mat<2,3,double,2>::mat<2,3,double,2>
PUBLIC	??E?$mat@$01$02N$01@glm@@QAEAAU01@XZ		; glm::mat<2,3,double,2>::operator++
PUBLIC	??F?$mat@$01$02N$01@glm@@QAEAAU01@XZ		; glm::mat<2,3,double,2>::operator--
PUBLIC	??E?$mat@$01$02N$01@glm@@QAE?AU01@H@Z		; glm::mat<2,3,double,2>::operator++
PUBLIC	??F?$mat@$01$02N$01@glm@@QAE?AU01@H@Z		; glm::mat<2,3,double,2>::operator--
PUBLIC	?length@?$mat@$01$02M$00@glm@@SAHXZ		; glm::mat<2,3,float,1>::length
PUBLIC	??A?$mat@$01$02M$00@glm@@QAEAAU?$vec@$02M$00@1@H@Z ; glm::mat<2,3,float,1>::operator[]
PUBLIC	??A?$mat@$01$02M$00@glm@@QBEABU?$vec@$02M$00@1@H@Z ; glm::mat<2,3,float,1>::operator[]
PUBLIC	??0?$mat@$01$02M$00@glm@@QAE@M@Z		; glm::mat<2,3,float,1>::mat<2,3,float,1>
PUBLIC	??0?$mat@$01$02M$00@glm@@QAE@MMMMMM@Z		; glm::mat<2,3,float,1>::mat<2,3,float,1>
PUBLIC	??0?$mat@$01$02M$00@glm@@QAE@ABU?$vec@$02M$00@1@0@Z ; glm::mat<2,3,float,1>::mat<2,3,float,1>
PUBLIC	??0?$mat@$01$02M$00@glm@@QAE@ABU?$mat@$01$01M$00@1@@Z ; glm::mat<2,3,float,1>::mat<2,3,float,1>
PUBLIC	??0?$mat@$01$02M$00@glm@@QAE@ABU?$mat@$02$02M$00@1@@Z ; glm::mat<2,3,float,1>::mat<2,3,float,1>
PUBLIC	??0?$mat@$01$02M$00@glm@@QAE@ABU?$mat@$03$03M$00@1@@Z ; glm::mat<2,3,float,1>::mat<2,3,float,1>
PUBLIC	??0?$mat@$01$02M$00@glm@@QAE@ABU?$mat@$01$03M$00@1@@Z ; glm::mat<2,3,float,1>::mat<2,3,float,1>
PUBLIC	??0?$mat@$01$02M$00@glm@@QAE@ABU?$mat@$02$01M$00@1@@Z ; glm::mat<2,3,float,1>::mat<2,3,float,1>
PUBLIC	??0?$mat@$01$02M$00@glm@@QAE@ABU?$mat@$02$03M$00@1@@Z ; glm::mat<2,3,float,1>::mat<2,3,float,1>
PUBLIC	??0?$mat@$01$02M$00@glm@@QAE@ABU?$mat@$03$01M$00@1@@Z ; glm::mat<2,3,float,1>::mat<2,3,float,1>
PUBLIC	??0?$mat@$01$02M$00@glm@@QAE@ABU?$mat@$03$02M$00@1@@Z ; glm::mat<2,3,float,1>::mat<2,3,float,1>
PUBLIC	??E?$mat@$01$02M$00@glm@@QAEAAU01@XZ		; glm::mat<2,3,float,1>::operator++
PUBLIC	??F?$mat@$01$02M$00@glm@@QAEAAU01@XZ		; glm::mat<2,3,float,1>::operator--
PUBLIC	??E?$mat@$01$02M$00@glm@@QAE?AU01@H@Z		; glm::mat<2,3,float,1>::operator++
PUBLIC	??F?$mat@$01$02M$00@glm@@QAE?AU01@H@Z		; glm::mat<2,3,float,1>::operator--
PUBLIC	?length@?$mat@$01$02N$00@glm@@SAHXZ		; glm::mat<2,3,double,1>::length
PUBLIC	??A?$mat@$01$02N$00@glm@@QAEAAU?$vec@$02N$00@1@H@Z ; glm::mat<2,3,double,1>::operator[]
PUBLIC	??A?$mat@$01$02N$00@glm@@QBEABU?$vec@$02N$00@1@H@Z ; glm::mat<2,3,double,1>::operator[]
PUBLIC	??0?$mat@$01$02N$00@glm@@QAE@N@Z		; glm::mat<2,3,double,1>::mat<2,3,double,1>
PUBLIC	??0?$mat@$01$02N$00@glm@@QAE@NNNNNN@Z		; glm::mat<2,3,double,1>::mat<2,3,double,1>
PUBLIC	??0?$mat@$01$02N$00@glm@@QAE@ABU?$vec@$02N$00@1@0@Z ; glm::mat<2,3,double,1>::mat<2,3,double,1>
PUBLIC	??0?$mat@$01$02N$00@glm@@QAE@ABU?$mat@$01$01N$00@1@@Z ; glm::mat<2,3,double,1>::mat<2,3,double,1>
PUBLIC	??0?$mat@$01$02N$00@glm@@QAE@ABU?$mat@$02$02N$00@1@@Z ; glm::mat<2,3,double,1>::mat<2,3,double,1>
PUBLIC	??0?$mat@$01$02N$00@glm@@QAE@ABU?$mat@$03$03N$00@1@@Z ; glm::mat<2,3,double,1>::mat<2,3,double,1>
PUBLIC	??0?$mat@$01$02N$00@glm@@QAE@ABU?$mat@$01$03N$00@1@@Z ; glm::mat<2,3,double,1>::mat<2,3,double,1>
PUBLIC	??0?$mat@$01$02N$00@glm@@QAE@ABU?$mat@$02$01N$00@1@@Z ; glm::mat<2,3,double,1>::mat<2,3,double,1>
PUBLIC	??0?$mat@$01$02N$00@glm@@QAE@ABU?$mat@$02$03N$00@1@@Z ; glm::mat<2,3,double,1>::mat<2,3,double,1>
PUBLIC	??0?$mat@$01$02N$00@glm@@QAE@ABU?$mat@$03$01N$00@1@@Z ; glm::mat<2,3,double,1>::mat<2,3,double,1>
PUBLIC	??0?$mat@$01$02N$00@glm@@QAE@ABU?$mat@$03$02N$00@1@@Z ; glm::mat<2,3,double,1>::mat<2,3,double,1>
PUBLIC	??E?$mat@$01$02N$00@glm@@QAEAAU01@XZ		; glm::mat<2,3,double,1>::operator++
PUBLIC	??F?$mat@$01$02N$00@glm@@QAEAAU01@XZ		; glm::mat<2,3,double,1>::operator--
PUBLIC	??E?$mat@$01$02N$00@glm@@QAE?AU01@H@Z		; glm::mat<2,3,double,1>::operator++
PUBLIC	??F?$mat@$01$02N$00@glm@@QAE?AU01@H@Z		; glm::mat<2,3,double,1>::operator--
PUBLIC	?length@?$mat@$01$02M$0A@@glm@@SAHXZ		; glm::mat<2,3,float,0>::length
PUBLIC	??A?$mat@$01$02M$0A@@glm@@QAEAAU?$vec@$02M$0A@@1@H@Z ; glm::mat<2,3,float,0>::operator[]
PUBLIC	??A?$mat@$01$02M$0A@@glm@@QBEABU?$vec@$02M$0A@@1@H@Z ; glm::mat<2,3,float,0>::operator[]
PUBLIC	??0?$mat@$01$02M$0A@@glm@@QAE@M@Z		; glm::mat<2,3,float,0>::mat<2,3,float,0>
PUBLIC	??0?$mat@$01$02M$0A@@glm@@QAE@MMMMMM@Z		; glm::mat<2,3,float,0>::mat<2,3,float,0>
PUBLIC	??0?$mat@$01$02M$0A@@glm@@QAE@ABU?$vec@$02M$0A@@1@0@Z ; glm::mat<2,3,float,0>::mat<2,3,float,0>
PUBLIC	??0?$mat@$01$02M$0A@@glm@@QAE@ABU?$mat@$01$01M$0A@@1@@Z ; glm::mat<2,3,float,0>::mat<2,3,float,0>
PUBLIC	??0?$mat@$01$02M$0A@@glm@@QAE@ABU?$mat@$02$02M$0A@@1@@Z ; glm::mat<2,3,float,0>::mat<2,3,float,0>
PUBLIC	??0?$mat@$01$02M$0A@@glm@@QAE@ABU?$mat@$03$03M$0A@@1@@Z ; glm::mat<2,3,float,0>::mat<2,3,float,0>
PUBLIC	??0?$mat@$01$02M$0A@@glm@@QAE@ABU?$mat@$01$03M$0A@@1@@Z ; glm::mat<2,3,float,0>::mat<2,3,float,0>
PUBLIC	??0?$mat@$01$02M$0A@@glm@@QAE@ABU?$mat@$02$01M$0A@@1@@Z ; glm::mat<2,3,float,0>::mat<2,3,float,0>
PUBLIC	??0?$mat@$01$02M$0A@@glm@@QAE@ABU?$mat@$02$03M$0A@@1@@Z ; glm::mat<2,3,float,0>::mat<2,3,float,0>
PUBLIC	??0?$mat@$01$02M$0A@@glm@@QAE@ABU?$mat@$03$01M$0A@@1@@Z ; glm::mat<2,3,float,0>::mat<2,3,float,0>
PUBLIC	??0?$mat@$01$02M$0A@@glm@@QAE@ABU?$mat@$03$02M$0A@@1@@Z ; glm::mat<2,3,float,0>::mat<2,3,float,0>
PUBLIC	??E?$mat@$01$02M$0A@@glm@@QAEAAU01@XZ		; glm::mat<2,3,float,0>::operator++
PUBLIC	??F?$mat@$01$02M$0A@@glm@@QAEAAU01@XZ		; glm::mat<2,3,float,0>::operator--
PUBLIC	??E?$mat@$01$02M$0A@@glm@@QAE?AU01@H@Z		; glm::mat<2,3,float,0>::operator++
PUBLIC	??F?$mat@$01$02M$0A@@glm@@QAE?AU01@H@Z		; glm::mat<2,3,float,0>::operator--
PUBLIC	?length@?$mat@$01$02N$0A@@glm@@SAHXZ		; glm::mat<2,3,double,0>::length
PUBLIC	??A?$mat@$01$02N$0A@@glm@@QAEAAU?$vec@$02N$0A@@1@H@Z ; glm::mat<2,3,double,0>::operator[]
PUBLIC	??A?$mat@$01$02N$0A@@glm@@QBEABU?$vec@$02N$0A@@1@H@Z ; glm::mat<2,3,double,0>::operator[]
PUBLIC	??0?$mat@$01$02N$0A@@glm@@QAE@N@Z		; glm::mat<2,3,double,0>::mat<2,3,double,0>
PUBLIC	??0?$mat@$01$02N$0A@@glm@@QAE@NNNNNN@Z		; glm::mat<2,3,double,0>::mat<2,3,double,0>
PUBLIC	??0?$mat@$01$02N$0A@@glm@@QAE@ABU?$vec@$02N$0A@@1@0@Z ; glm::mat<2,3,double,0>::mat<2,3,double,0>
PUBLIC	??0?$mat@$01$02N$0A@@glm@@QAE@ABU?$mat@$01$01N$0A@@1@@Z ; glm::mat<2,3,double,0>::mat<2,3,double,0>
PUBLIC	??0?$mat@$01$02N$0A@@glm@@QAE@ABU?$mat@$02$02N$0A@@1@@Z ; glm::mat<2,3,double,0>::mat<2,3,double,0>
PUBLIC	??0?$mat@$01$02N$0A@@glm@@QAE@ABU?$mat@$03$03N$0A@@1@@Z ; glm::mat<2,3,double,0>::mat<2,3,double,0>
PUBLIC	??0?$mat@$01$02N$0A@@glm@@QAE@ABU?$mat@$01$03N$0A@@1@@Z ; glm::mat<2,3,double,0>::mat<2,3,double,0>
PUBLIC	??0?$mat@$01$02N$0A@@glm@@QAE@ABU?$mat@$02$01N$0A@@1@@Z ; glm::mat<2,3,double,0>::mat<2,3,double,0>
PUBLIC	??0?$mat@$01$02N$0A@@glm@@QAE@ABU?$mat@$02$03N$0A@@1@@Z ; glm::mat<2,3,double,0>::mat<2,3,double,0>
PUBLIC	??0?$mat@$01$02N$0A@@glm@@QAE@ABU?$mat@$03$01N$0A@@1@@Z ; glm::mat<2,3,double,0>::mat<2,3,double,0>
PUBLIC	??0?$mat@$01$02N$0A@@glm@@QAE@ABU?$mat@$03$02N$0A@@1@@Z ; glm::mat<2,3,double,0>::mat<2,3,double,0>
PUBLIC	??E?$mat@$01$02N$0A@@glm@@QAEAAU01@XZ		; glm::mat<2,3,double,0>::operator++
PUBLIC	??F?$mat@$01$02N$0A@@glm@@QAEAAU01@XZ		; glm::mat<2,3,double,0>::operator--
PUBLIC	??E?$mat@$01$02N$0A@@glm@@QAE?AU01@H@Z		; glm::mat<2,3,double,0>::operator++
PUBLIC	??F?$mat@$01$02N$0A@@glm@@QAE?AU01@H@Z		; glm::mat<2,3,double,0>::operator--
PUBLIC	?length@?$mat@$01$03M$01@glm@@SAHXZ		; glm::mat<2,4,float,2>::length
PUBLIC	??A?$mat@$01$03M$01@glm@@QAEAAU?$vec@$03M$01@1@H@Z ; glm::mat<2,4,float,2>::operator[]
PUBLIC	??A?$mat@$01$03M$01@glm@@QBEABU?$vec@$03M$01@1@H@Z ; glm::mat<2,4,float,2>::operator[]
PUBLIC	??0?$mat@$01$03M$01@glm@@QAE@M@Z		; glm::mat<2,4,float,2>::mat<2,4,float,2>
PUBLIC	??0?$mat@$01$03M$01@glm@@QAE@MMMMMMMM@Z		; glm::mat<2,4,float,2>::mat<2,4,float,2>
PUBLIC	??0?$mat@$01$03M$01@glm@@QAE@ABU?$vec@$03M$01@1@0@Z ; glm::mat<2,4,float,2>::mat<2,4,float,2>
PUBLIC	??0?$mat@$01$03M$01@glm@@QAE@ABU?$mat@$01$01M$01@1@@Z ; glm::mat<2,4,float,2>::mat<2,4,float,2>
PUBLIC	??0?$mat@$01$03M$01@glm@@QAE@ABU?$mat@$02$02M$01@1@@Z ; glm::mat<2,4,float,2>::mat<2,4,float,2>
PUBLIC	??0?$mat@$01$03M$01@glm@@QAE@ABU?$mat@$03$03M$01@1@@Z ; glm::mat<2,4,float,2>::mat<2,4,float,2>
PUBLIC	??0?$mat@$01$03M$01@glm@@QAE@ABU?$mat@$01$02M$01@1@@Z ; glm::mat<2,4,float,2>::mat<2,4,float,2>
PUBLIC	??0?$mat@$01$03M$01@glm@@QAE@ABU?$mat@$02$01M$01@1@@Z ; glm::mat<2,4,float,2>::mat<2,4,float,2>
PUBLIC	??0?$mat@$01$03M$01@glm@@QAE@ABU?$mat@$02$03M$01@1@@Z ; glm::mat<2,4,float,2>::mat<2,4,float,2>
PUBLIC	??0?$mat@$01$03M$01@glm@@QAE@ABU?$mat@$03$01M$01@1@@Z ; glm::mat<2,4,float,2>::mat<2,4,float,2>
PUBLIC	??0?$mat@$01$03M$01@glm@@QAE@ABU?$mat@$03$02M$01@1@@Z ; glm::mat<2,4,float,2>::mat<2,4,float,2>
PUBLIC	??E?$mat@$01$03M$01@glm@@QAEAAU01@XZ		; glm::mat<2,4,float,2>::operator++
PUBLIC	??F?$mat@$01$03M$01@glm@@QAEAAU01@XZ		; glm::mat<2,4,float,2>::operator--
PUBLIC	??E?$mat@$01$03M$01@glm@@QAE?AU01@H@Z		; glm::mat<2,4,float,2>::operator++
PUBLIC	??F?$mat@$01$03M$01@glm@@QAE?AU01@H@Z		; glm::mat<2,4,float,2>::operator--
PUBLIC	?length@?$mat@$01$03N$01@glm@@SAHXZ		; glm::mat<2,4,double,2>::length
PUBLIC	??A?$mat@$01$03N$01@glm@@QAEAAU?$vec@$03N$01@1@H@Z ; glm::mat<2,4,double,2>::operator[]
PUBLIC	??A?$mat@$01$03N$01@glm@@QBEABU?$vec@$03N$01@1@H@Z ; glm::mat<2,4,double,2>::operator[]
PUBLIC	??0?$mat@$01$03N$01@glm@@QAE@N@Z		; glm::mat<2,4,double,2>::mat<2,4,double,2>
PUBLIC	??0?$mat@$01$03N$01@glm@@QAE@NNNNNNNN@Z		; glm::mat<2,4,double,2>::mat<2,4,double,2>
PUBLIC	??0?$mat@$01$03N$01@glm@@QAE@ABU?$vec@$03N$01@1@0@Z ; glm::mat<2,4,double,2>::mat<2,4,double,2>
PUBLIC	??0?$mat@$01$03N$01@glm@@QAE@ABU?$mat@$01$01N$01@1@@Z ; glm::mat<2,4,double,2>::mat<2,4,double,2>
PUBLIC	??0?$mat@$01$03N$01@glm@@QAE@ABU?$mat@$02$02N$01@1@@Z ; glm::mat<2,4,double,2>::mat<2,4,double,2>
PUBLIC	??0?$mat@$01$03N$01@glm@@QAE@ABU?$mat@$03$03N$01@1@@Z ; glm::mat<2,4,double,2>::mat<2,4,double,2>
PUBLIC	??0?$mat@$01$03N$01@glm@@QAE@ABU?$mat@$01$02N$01@1@@Z ; glm::mat<2,4,double,2>::mat<2,4,double,2>
PUBLIC	??0?$mat@$01$03N$01@glm@@QAE@ABU?$mat@$02$01N$01@1@@Z ; glm::mat<2,4,double,2>::mat<2,4,double,2>
PUBLIC	??0?$mat@$01$03N$01@glm@@QAE@ABU?$mat@$02$03N$01@1@@Z ; glm::mat<2,4,double,2>::mat<2,4,double,2>
PUBLIC	??0?$mat@$01$03N$01@glm@@QAE@ABU?$mat@$03$01N$01@1@@Z ; glm::mat<2,4,double,2>::mat<2,4,double,2>
PUBLIC	??0?$mat@$01$03N$01@glm@@QAE@ABU?$mat@$03$02N$01@1@@Z ; glm::mat<2,4,double,2>::mat<2,4,double,2>
PUBLIC	??E?$mat@$01$03N$01@glm@@QAEAAU01@XZ		; glm::mat<2,4,double,2>::operator++
PUBLIC	??F?$mat@$01$03N$01@glm@@QAEAAU01@XZ		; glm::mat<2,4,double,2>::operator--
PUBLIC	??E?$mat@$01$03N$01@glm@@QAE?AU01@H@Z		; glm::mat<2,4,double,2>::operator++
PUBLIC	??F?$mat@$01$03N$01@glm@@QAE?AU01@H@Z		; glm::mat<2,4,double,2>::operator--
PUBLIC	?length@?$mat@$01$03M$00@glm@@SAHXZ		; glm::mat<2,4,float,1>::length
PUBLIC	??A?$mat@$01$03M$00@glm@@QAEAAU?$vec@$03M$00@1@H@Z ; glm::mat<2,4,float,1>::operator[]
PUBLIC	??A?$mat@$01$03M$00@glm@@QBEABU?$vec@$03M$00@1@H@Z ; glm::mat<2,4,float,1>::operator[]
PUBLIC	??0?$mat@$01$03M$00@glm@@QAE@M@Z		; glm::mat<2,4,float,1>::mat<2,4,float,1>
PUBLIC	??0?$mat@$01$03M$00@glm@@QAE@MMMMMMMM@Z		; glm::mat<2,4,float,1>::mat<2,4,float,1>
PUBLIC	??0?$mat@$01$03M$00@glm@@QAE@ABU?$vec@$03M$00@1@0@Z ; glm::mat<2,4,float,1>::mat<2,4,float,1>
PUBLIC	??0?$mat@$01$03M$00@glm@@QAE@ABU?$mat@$01$01M$00@1@@Z ; glm::mat<2,4,float,1>::mat<2,4,float,1>
PUBLIC	??0?$mat@$01$03M$00@glm@@QAE@ABU?$mat@$02$02M$00@1@@Z ; glm::mat<2,4,float,1>::mat<2,4,float,1>
PUBLIC	??0?$mat@$01$03M$00@glm@@QAE@ABU?$mat@$03$03M$00@1@@Z ; glm::mat<2,4,float,1>::mat<2,4,float,1>
PUBLIC	??0?$mat@$01$03M$00@glm@@QAE@ABU?$mat@$01$02M$00@1@@Z ; glm::mat<2,4,float,1>::mat<2,4,float,1>
PUBLIC	??0?$mat@$01$03M$00@glm@@QAE@ABU?$mat@$02$01M$00@1@@Z ; glm::mat<2,4,float,1>::mat<2,4,float,1>
PUBLIC	??0?$mat@$01$03M$00@glm@@QAE@ABU?$mat@$02$03M$00@1@@Z ; glm::mat<2,4,float,1>::mat<2,4,float,1>
PUBLIC	??0?$mat@$01$03M$00@glm@@QAE@ABU?$mat@$03$01M$00@1@@Z ; glm::mat<2,4,float,1>::mat<2,4,float,1>
PUBLIC	??0?$mat@$01$03M$00@glm@@QAE@ABU?$mat@$03$02M$00@1@@Z ; glm::mat<2,4,float,1>::mat<2,4,float,1>
PUBLIC	??E?$mat@$01$03M$00@glm@@QAEAAU01@XZ		; glm::mat<2,4,float,1>::operator++
PUBLIC	??F?$mat@$01$03M$00@glm@@QAEAAU01@XZ		; glm::mat<2,4,float,1>::operator--
PUBLIC	??E?$mat@$01$03M$00@glm@@QAE?AU01@H@Z		; glm::mat<2,4,float,1>::operator++
PUBLIC	??F?$mat@$01$03M$00@glm@@QAE?AU01@H@Z		; glm::mat<2,4,float,1>::operator--
PUBLIC	?length@?$mat@$01$03N$00@glm@@SAHXZ		; glm::mat<2,4,double,1>::length
PUBLIC	??A?$mat@$01$03N$00@glm@@QAEAAU?$vec@$03N$00@1@H@Z ; glm::mat<2,4,double,1>::operator[]
PUBLIC	??A?$mat@$01$03N$00@glm@@QBEABU?$vec@$03N$00@1@H@Z ; glm::mat<2,4,double,1>::operator[]
PUBLIC	??0?$mat@$01$03N$00@glm@@QAE@N@Z		; glm::mat<2,4,double,1>::mat<2,4,double,1>
PUBLIC	??0?$mat@$01$03N$00@glm@@QAE@NNNNNNNN@Z		; glm::mat<2,4,double,1>::mat<2,4,double,1>
PUBLIC	??0?$mat@$01$03N$00@glm@@QAE@ABU?$vec@$03N$00@1@0@Z ; glm::mat<2,4,double,1>::mat<2,4,double,1>
PUBLIC	??0?$mat@$01$03N$00@glm@@QAE@ABU?$mat@$01$01N$00@1@@Z ; glm::mat<2,4,double,1>::mat<2,4,double,1>
PUBLIC	??0?$mat@$01$03N$00@glm@@QAE@ABU?$mat@$02$02N$00@1@@Z ; glm::mat<2,4,double,1>::mat<2,4,double,1>
PUBLIC	??0?$mat@$01$03N$00@glm@@QAE@ABU?$mat@$03$03N$00@1@@Z ; glm::mat<2,4,double,1>::mat<2,4,double,1>
PUBLIC	??0?$mat@$01$03N$00@glm@@QAE@ABU?$mat@$01$02N$00@1@@Z ; glm::mat<2,4,double,1>::mat<2,4,double,1>
PUBLIC	??0?$mat@$01$03N$00@glm@@QAE@ABU?$mat@$02$01N$00@1@@Z ; glm::mat<2,4,double,1>::mat<2,4,double,1>
PUBLIC	??0?$mat@$01$03N$00@glm@@QAE@ABU?$mat@$02$03N$00@1@@Z ; glm::mat<2,4,double,1>::mat<2,4,double,1>
PUBLIC	??0?$mat@$01$03N$00@glm@@QAE@ABU?$mat@$03$01N$00@1@@Z ; glm::mat<2,4,double,1>::mat<2,4,double,1>
PUBLIC	??0?$mat@$01$03N$00@glm@@QAE@ABU?$mat@$03$02N$00@1@@Z ; glm::mat<2,4,double,1>::mat<2,4,double,1>
PUBLIC	??E?$mat@$01$03N$00@glm@@QAEAAU01@XZ		; glm::mat<2,4,double,1>::operator++
PUBLIC	??F?$mat@$01$03N$00@glm@@QAEAAU01@XZ		; glm::mat<2,4,double,1>::operator--
PUBLIC	??E?$mat@$01$03N$00@glm@@QAE?AU01@H@Z		; glm::mat<2,4,double,1>::operator++
PUBLIC	??F?$mat@$01$03N$00@glm@@QAE?AU01@H@Z		; glm::mat<2,4,double,1>::operator--
PUBLIC	?length@?$mat@$01$03M$0A@@glm@@SAHXZ		; glm::mat<2,4,float,0>::length
PUBLIC	??A?$mat@$01$03M$0A@@glm@@QAEAAU?$vec@$03M$0A@@1@H@Z ; glm::mat<2,4,float,0>::operator[]
PUBLIC	??A?$mat@$01$03M$0A@@glm@@QBEABU?$vec@$03M$0A@@1@H@Z ; glm::mat<2,4,float,0>::operator[]
PUBLIC	??0?$mat@$01$03M$0A@@glm@@QAE@M@Z		; glm::mat<2,4,float,0>::mat<2,4,float,0>
PUBLIC	??0?$mat@$01$03M$0A@@glm@@QAE@MMMMMMMM@Z	; glm::mat<2,4,float,0>::mat<2,4,float,0>
PUBLIC	??0?$mat@$01$03M$0A@@glm@@QAE@ABU?$vec@$03M$0A@@1@0@Z ; glm::mat<2,4,float,0>::mat<2,4,float,0>
PUBLIC	??0?$mat@$01$03M$0A@@glm@@QAE@ABU?$mat@$01$01M$0A@@1@@Z ; glm::mat<2,4,float,0>::mat<2,4,float,0>
PUBLIC	??0?$mat@$01$03M$0A@@glm@@QAE@ABU?$mat@$02$02M$0A@@1@@Z ; glm::mat<2,4,float,0>::mat<2,4,float,0>
PUBLIC	??0?$mat@$01$03M$0A@@glm@@QAE@ABU?$mat@$03$03M$0A@@1@@Z ; glm::mat<2,4,float,0>::mat<2,4,float,0>
PUBLIC	??0?$mat@$01$03M$0A@@glm@@QAE@ABU?$mat@$01$02M$0A@@1@@Z ; glm::mat<2,4,float,0>::mat<2,4,float,0>
PUBLIC	??0?$mat@$01$03M$0A@@glm@@QAE@ABU?$mat@$02$01M$0A@@1@@Z ; glm::mat<2,4,float,0>::mat<2,4,float,0>
PUBLIC	??0?$mat@$01$03M$0A@@glm@@QAE@ABU?$mat@$02$03M$0A@@1@@Z ; glm::mat<2,4,float,0>::mat<2,4,float,0>
PUBLIC	??0?$mat@$01$03M$0A@@glm@@QAE@ABU?$mat@$03$01M$0A@@1@@Z ; glm::mat<2,4,float,0>::mat<2,4,float,0>
PUBLIC	??0?$mat@$01$03M$0A@@glm@@QAE@ABU?$mat@$03$02M$0A@@1@@Z ; glm::mat<2,4,float,0>::mat<2,4,float,0>
PUBLIC	??E?$mat@$01$03M$0A@@glm@@QAEAAU01@XZ		; glm::mat<2,4,float,0>::operator++
PUBLIC	??F?$mat@$01$03M$0A@@glm@@QAEAAU01@XZ		; glm::mat<2,4,float,0>::operator--
PUBLIC	??E?$mat@$01$03M$0A@@glm@@QAE?AU01@H@Z		; glm::mat<2,4,float,0>::operator++
PUBLIC	??F?$mat@$01$03M$0A@@glm@@QAE?AU01@H@Z		; glm::mat<2,4,float,0>::operator--
PUBLIC	?length@?$mat@$01$03N$0A@@glm@@SAHXZ		; glm::mat<2,4,double,0>::length
PUBLIC	??A?$mat@$01$03N$0A@@glm@@QAEAAU?$vec@$03N$0A@@1@H@Z ; glm::mat<2,4,double,0>::operator[]
PUBLIC	??A?$mat@$01$03N$0A@@glm@@QBEABU?$vec@$03N$0A@@1@H@Z ; glm::mat<2,4,double,0>::operator[]
PUBLIC	??0?$mat@$01$03N$0A@@glm@@QAE@N@Z		; glm::mat<2,4,double,0>::mat<2,4,double,0>
PUBLIC	??0?$mat@$01$03N$0A@@glm@@QAE@NNNNNNNN@Z	; glm::mat<2,4,double,0>::mat<2,4,double,0>
PUBLIC	??0?$mat@$01$03N$0A@@glm@@QAE@ABU?$vec@$03N$0A@@1@0@Z ; glm::mat<2,4,double,0>::mat<2,4,double,0>
PUBLIC	??0?$mat@$01$03N$0A@@glm@@QAE@ABU?$mat@$01$01N$0A@@1@@Z ; glm::mat<2,4,double,0>::mat<2,4,double,0>
PUBLIC	??0?$mat@$01$03N$0A@@glm@@QAE@ABU?$mat@$02$02N$0A@@1@@Z ; glm::mat<2,4,double,0>::mat<2,4,double,0>
PUBLIC	??0?$mat@$01$03N$0A@@glm@@QAE@ABU?$mat@$03$03N$0A@@1@@Z ; glm::mat<2,4,double,0>::mat<2,4,double,0>
PUBLIC	??0?$mat@$01$03N$0A@@glm@@QAE@ABU?$mat@$01$02N$0A@@1@@Z ; glm::mat<2,4,double,0>::mat<2,4,double,0>
PUBLIC	??0?$mat@$01$03N$0A@@glm@@QAE@ABU?$mat@$02$01N$0A@@1@@Z ; glm::mat<2,4,double,0>::mat<2,4,double,0>
PUBLIC	??0?$mat@$01$03N$0A@@glm@@QAE@ABU?$mat@$02$03N$0A@@1@@Z ; glm::mat<2,4,double,0>::mat<2,4,double,0>
PUBLIC	??0?$mat@$01$03N$0A@@glm@@QAE@ABU?$mat@$03$01N$0A@@1@@Z ; glm::mat<2,4,double,0>::mat<2,4,double,0>
PUBLIC	??0?$mat@$01$03N$0A@@glm@@QAE@ABU?$mat@$03$02N$0A@@1@@Z ; glm::mat<2,4,double,0>::mat<2,4,double,0>
PUBLIC	??E?$mat@$01$03N$0A@@glm@@QAEAAU01@XZ		; glm::mat<2,4,double,0>::operator++
PUBLIC	??F?$mat@$01$03N$0A@@glm@@QAEAAU01@XZ		; glm::mat<2,4,double,0>::operator--
PUBLIC	??E?$mat@$01$03N$0A@@glm@@QAE?AU01@H@Z		; glm::mat<2,4,double,0>::operator++
PUBLIC	??F?$mat@$01$03N$0A@@glm@@QAE?AU01@H@Z		; glm::mat<2,4,double,0>::operator--
PUBLIC	?length@?$mat@$02$01M$01@glm@@SAHXZ		; glm::mat<3,2,float,2>::length
PUBLIC	??A?$mat@$02$01M$01@glm@@QAEAAU?$vec@$01M$01@1@H@Z ; glm::mat<3,2,float,2>::operator[]
PUBLIC	??A?$mat@$02$01M$01@glm@@QBEABU?$vec@$01M$01@1@H@Z ; glm::mat<3,2,float,2>::operator[]
PUBLIC	??0?$mat@$02$01M$01@glm@@QAE@M@Z		; glm::mat<3,2,float,2>::mat<3,2,float,2>
PUBLIC	??0?$mat@$02$01M$01@glm@@QAE@MMMMMM@Z		; glm::mat<3,2,float,2>::mat<3,2,float,2>
PUBLIC	??0?$mat@$02$01M$01@glm@@QAE@ABU?$vec@$01M$01@1@00@Z ; glm::mat<3,2,float,2>::mat<3,2,float,2>
PUBLIC	??0?$mat@$02$01M$01@glm@@QAE@ABU?$mat@$01$01M$01@1@@Z ; glm::mat<3,2,float,2>::mat<3,2,float,2>
PUBLIC	??0?$mat@$02$01M$01@glm@@QAE@ABU?$mat@$02$02M$01@1@@Z ; glm::mat<3,2,float,2>::mat<3,2,float,2>
PUBLIC	??0?$mat@$02$01M$01@glm@@QAE@ABU?$mat@$03$03M$01@1@@Z ; glm::mat<3,2,float,2>::mat<3,2,float,2>
PUBLIC	??0?$mat@$02$01M$01@glm@@QAE@ABU?$mat@$01$02M$01@1@@Z ; glm::mat<3,2,float,2>::mat<3,2,float,2>
PUBLIC	??0?$mat@$02$01M$01@glm@@QAE@ABU?$mat@$01$03M$01@1@@Z ; glm::mat<3,2,float,2>::mat<3,2,float,2>
PUBLIC	??0?$mat@$02$01M$01@glm@@QAE@ABU?$mat@$02$03M$01@1@@Z ; glm::mat<3,2,float,2>::mat<3,2,float,2>
PUBLIC	??0?$mat@$02$01M$01@glm@@QAE@ABU?$mat@$03$01M$01@1@@Z ; glm::mat<3,2,float,2>::mat<3,2,float,2>
PUBLIC	??0?$mat@$02$01M$01@glm@@QAE@ABU?$mat@$03$02M$01@1@@Z ; glm::mat<3,2,float,2>::mat<3,2,float,2>
PUBLIC	??E?$mat@$02$01M$01@glm@@QAEAAU01@XZ		; glm::mat<3,2,float,2>::operator++
PUBLIC	??F?$mat@$02$01M$01@glm@@QAEAAU01@XZ		; glm::mat<3,2,float,2>::operator--
PUBLIC	??E?$mat@$02$01M$01@glm@@QAE?AU01@H@Z		; glm::mat<3,2,float,2>::operator++
PUBLIC	??F?$mat@$02$01M$01@glm@@QAE?AU01@H@Z		; glm::mat<3,2,float,2>::operator--
PUBLIC	?length@?$mat@$02$01N$01@glm@@SAHXZ		; glm::mat<3,2,double,2>::length
PUBLIC	??A?$mat@$02$01N$01@glm@@QAEAAU?$vec@$01N$01@1@H@Z ; glm::mat<3,2,double,2>::operator[]
PUBLIC	??A?$mat@$02$01N$01@glm@@QBEABU?$vec@$01N$01@1@H@Z ; glm::mat<3,2,double,2>::operator[]
PUBLIC	??0?$mat@$02$01N$01@glm@@QAE@N@Z		; glm::mat<3,2,double,2>::mat<3,2,double,2>
PUBLIC	??0?$mat@$02$01N$01@glm@@QAE@NNNNNN@Z		; glm::mat<3,2,double,2>::mat<3,2,double,2>
PUBLIC	??0?$mat@$02$01N$01@glm@@QAE@ABU?$vec@$01N$01@1@00@Z ; glm::mat<3,2,double,2>::mat<3,2,double,2>
PUBLIC	??0?$mat@$02$01N$01@glm@@QAE@ABU?$mat@$01$01N$01@1@@Z ; glm::mat<3,2,double,2>::mat<3,2,double,2>
PUBLIC	??0?$mat@$02$01N$01@glm@@QAE@ABU?$mat@$02$02N$01@1@@Z ; glm::mat<3,2,double,2>::mat<3,2,double,2>
PUBLIC	??0?$mat@$02$01N$01@glm@@QAE@ABU?$mat@$03$03N$01@1@@Z ; glm::mat<3,2,double,2>::mat<3,2,double,2>
PUBLIC	??0?$mat@$02$01N$01@glm@@QAE@ABU?$mat@$01$02N$01@1@@Z ; glm::mat<3,2,double,2>::mat<3,2,double,2>
PUBLIC	??0?$mat@$02$01N$01@glm@@QAE@ABU?$mat@$01$03N$01@1@@Z ; glm::mat<3,2,double,2>::mat<3,2,double,2>
PUBLIC	??0?$mat@$02$01N$01@glm@@QAE@ABU?$mat@$02$03N$01@1@@Z ; glm::mat<3,2,double,2>::mat<3,2,double,2>
PUBLIC	??0?$mat@$02$01N$01@glm@@QAE@ABU?$mat@$03$01N$01@1@@Z ; glm::mat<3,2,double,2>::mat<3,2,double,2>
PUBLIC	??0?$mat@$02$01N$01@glm@@QAE@ABU?$mat@$03$02N$01@1@@Z ; glm::mat<3,2,double,2>::mat<3,2,double,2>
PUBLIC	??E?$mat@$02$01N$01@glm@@QAEAAU01@XZ		; glm::mat<3,2,double,2>::operator++
PUBLIC	??F?$mat@$02$01N$01@glm@@QAEAAU01@XZ		; glm::mat<3,2,double,2>::operator--
PUBLIC	??E?$mat@$02$01N$01@glm@@QAE?AU01@H@Z		; glm::mat<3,2,double,2>::operator++
PUBLIC	??F?$mat@$02$01N$01@glm@@QAE?AU01@H@Z		; glm::mat<3,2,double,2>::operator--
PUBLIC	?length@?$mat@$02$01M$00@glm@@SAHXZ		; glm::mat<3,2,float,1>::length
PUBLIC	??A?$mat@$02$01M$00@glm@@QAEAAU?$vec@$01M$00@1@H@Z ; glm::mat<3,2,float,1>::operator[]
PUBLIC	??A?$mat@$02$01M$00@glm@@QBEABU?$vec@$01M$00@1@H@Z ; glm::mat<3,2,float,1>::operator[]
PUBLIC	??0?$mat@$02$01M$00@glm@@QAE@M@Z		; glm::mat<3,2,float,1>::mat<3,2,float,1>
PUBLIC	??0?$mat@$02$01M$00@glm@@QAE@MMMMMM@Z		; glm::mat<3,2,float,1>::mat<3,2,float,1>
PUBLIC	??0?$mat@$02$01M$00@glm@@QAE@ABU?$vec@$01M$00@1@00@Z ; glm::mat<3,2,float,1>::mat<3,2,float,1>
PUBLIC	??0?$mat@$02$01M$00@glm@@QAE@ABU?$mat@$01$01M$00@1@@Z ; glm::mat<3,2,float,1>::mat<3,2,float,1>
PUBLIC	??0?$mat@$02$01M$00@glm@@QAE@ABU?$mat@$02$02M$00@1@@Z ; glm::mat<3,2,float,1>::mat<3,2,float,1>
PUBLIC	??0?$mat@$02$01M$00@glm@@QAE@ABU?$mat@$03$03M$00@1@@Z ; glm::mat<3,2,float,1>::mat<3,2,float,1>
PUBLIC	??0?$mat@$02$01M$00@glm@@QAE@ABU?$mat@$01$02M$00@1@@Z ; glm::mat<3,2,float,1>::mat<3,2,float,1>
PUBLIC	??0?$mat@$02$01M$00@glm@@QAE@ABU?$mat@$01$03M$00@1@@Z ; glm::mat<3,2,float,1>::mat<3,2,float,1>
PUBLIC	??0?$mat@$02$01M$00@glm@@QAE@ABU?$mat@$02$03M$00@1@@Z ; glm::mat<3,2,float,1>::mat<3,2,float,1>
PUBLIC	??0?$mat@$02$01M$00@glm@@QAE@ABU?$mat@$03$01M$00@1@@Z ; glm::mat<3,2,float,1>::mat<3,2,float,1>
PUBLIC	??0?$mat@$02$01M$00@glm@@QAE@ABU?$mat@$03$02M$00@1@@Z ; glm::mat<3,2,float,1>::mat<3,2,float,1>
PUBLIC	??E?$mat@$02$01M$00@glm@@QAEAAU01@XZ		; glm::mat<3,2,float,1>::operator++
PUBLIC	??F?$mat@$02$01M$00@glm@@QAEAAU01@XZ		; glm::mat<3,2,float,1>::operator--
PUBLIC	??E?$mat@$02$01M$00@glm@@QAE?AU01@H@Z		; glm::mat<3,2,float,1>::operator++
PUBLIC	??F?$mat@$02$01M$00@glm@@QAE?AU01@H@Z		; glm::mat<3,2,float,1>::operator--
PUBLIC	?length@?$mat@$02$01N$00@glm@@SAHXZ		; glm::mat<3,2,double,1>::length
PUBLIC	??A?$mat@$02$01N$00@glm@@QAEAAU?$vec@$01N$00@1@H@Z ; glm::mat<3,2,double,1>::operator[]
PUBLIC	??A?$mat@$02$01N$00@glm@@QBEABU?$vec@$01N$00@1@H@Z ; glm::mat<3,2,double,1>::operator[]
PUBLIC	??0?$mat@$02$01N$00@glm@@QAE@N@Z		; glm::mat<3,2,double,1>::mat<3,2,double,1>
PUBLIC	??0?$mat@$02$01N$00@glm@@QAE@NNNNNN@Z		; glm::mat<3,2,double,1>::mat<3,2,double,1>
PUBLIC	??0?$mat@$02$01N$00@glm@@QAE@ABU?$vec@$01N$00@1@00@Z ; glm::mat<3,2,double,1>::mat<3,2,double,1>
PUBLIC	??0?$mat@$02$01N$00@glm@@QAE@ABU?$mat@$01$01N$00@1@@Z ; glm::mat<3,2,double,1>::mat<3,2,double,1>
PUBLIC	??0?$mat@$02$01N$00@glm@@QAE@ABU?$mat@$02$02N$00@1@@Z ; glm::mat<3,2,double,1>::mat<3,2,double,1>
PUBLIC	??0?$mat@$02$01N$00@glm@@QAE@ABU?$mat@$03$03N$00@1@@Z ; glm::mat<3,2,double,1>::mat<3,2,double,1>
PUBLIC	??0?$mat@$02$01N$00@glm@@QAE@ABU?$mat@$01$02N$00@1@@Z ; glm::mat<3,2,double,1>::mat<3,2,double,1>
PUBLIC	??0?$mat@$02$01N$00@glm@@QAE@ABU?$mat@$01$03N$00@1@@Z ; glm::mat<3,2,double,1>::mat<3,2,double,1>
PUBLIC	??0?$mat@$02$01N$00@glm@@QAE@ABU?$mat@$02$03N$00@1@@Z ; glm::mat<3,2,double,1>::mat<3,2,double,1>
PUBLIC	??0?$mat@$02$01N$00@glm@@QAE@ABU?$mat@$03$01N$00@1@@Z ; glm::mat<3,2,double,1>::mat<3,2,double,1>
PUBLIC	??0?$mat@$02$01N$00@glm@@QAE@ABU?$mat@$03$02N$00@1@@Z ; glm::mat<3,2,double,1>::mat<3,2,double,1>
PUBLIC	??E?$mat@$02$01N$00@glm@@QAEAAU01@XZ		; glm::mat<3,2,double,1>::operator++
PUBLIC	??F?$mat@$02$01N$00@glm@@QAEAAU01@XZ		; glm::mat<3,2,double,1>::operator--
PUBLIC	??E?$mat@$02$01N$00@glm@@QAE?AU01@H@Z		; glm::mat<3,2,double,1>::operator++
PUBLIC	??F?$mat@$02$01N$00@glm@@QAE?AU01@H@Z		; glm::mat<3,2,double,1>::operator--
PUBLIC	?length@?$mat@$02$01M$0A@@glm@@SAHXZ		; glm::mat<3,2,float,0>::length
PUBLIC	??A?$mat@$02$01M$0A@@glm@@QAEAAU?$vec@$01M$0A@@1@H@Z ; glm::mat<3,2,float,0>::operator[]
PUBLIC	??A?$mat@$02$01M$0A@@glm@@QBEABU?$vec@$01M$0A@@1@H@Z ; glm::mat<3,2,float,0>::operator[]
PUBLIC	??0?$mat@$02$01M$0A@@glm@@QAE@M@Z		; glm::mat<3,2,float,0>::mat<3,2,float,0>
PUBLIC	??0?$mat@$02$01M$0A@@glm@@QAE@MMMMMM@Z		; glm::mat<3,2,float,0>::mat<3,2,float,0>
PUBLIC	??0?$mat@$02$01M$0A@@glm@@QAE@ABU?$vec@$01M$0A@@1@00@Z ; glm::mat<3,2,float,0>::mat<3,2,float,0>
PUBLIC	??0?$mat@$02$01M$0A@@glm@@QAE@ABU?$mat@$01$01M$0A@@1@@Z ; glm::mat<3,2,float,0>::mat<3,2,float,0>
PUBLIC	??0?$mat@$02$01M$0A@@glm@@QAE@ABU?$mat@$02$02M$0A@@1@@Z ; glm::mat<3,2,float,0>::mat<3,2,float,0>
PUBLIC	??0?$mat@$02$01M$0A@@glm@@QAE@ABU?$mat@$03$03M$0A@@1@@Z ; glm::mat<3,2,float,0>::mat<3,2,float,0>
PUBLIC	??0?$mat@$02$01M$0A@@glm@@QAE@ABU?$mat@$01$02M$0A@@1@@Z ; glm::mat<3,2,float,0>::mat<3,2,float,0>
PUBLIC	??0?$mat@$02$01M$0A@@glm@@QAE@ABU?$mat@$01$03M$0A@@1@@Z ; glm::mat<3,2,float,0>::mat<3,2,float,0>
PUBLIC	??0?$mat@$02$01M$0A@@glm@@QAE@ABU?$mat@$02$03M$0A@@1@@Z ; glm::mat<3,2,float,0>::mat<3,2,float,0>
PUBLIC	??0?$mat@$02$01M$0A@@glm@@QAE@ABU?$mat@$03$01M$0A@@1@@Z ; glm::mat<3,2,float,0>::mat<3,2,float,0>
PUBLIC	??0?$mat@$02$01M$0A@@glm@@QAE@ABU?$mat@$03$02M$0A@@1@@Z ; glm::mat<3,2,float,0>::mat<3,2,float,0>
PUBLIC	??E?$mat@$02$01M$0A@@glm@@QAEAAU01@XZ		; glm::mat<3,2,float,0>::operator++
PUBLIC	??F?$mat@$02$01M$0A@@glm@@QAEAAU01@XZ		; glm::mat<3,2,float,0>::operator--
PUBLIC	??E?$mat@$02$01M$0A@@glm@@QAE?AU01@H@Z		; glm::mat<3,2,float,0>::operator++
PUBLIC	??F?$mat@$02$01M$0A@@glm@@QAE?AU01@H@Z		; glm::mat<3,2,float,0>::operator--
PUBLIC	?length@?$mat@$02$01N$0A@@glm@@SAHXZ		; glm::mat<3,2,double,0>::length
PUBLIC	??A?$mat@$02$01N$0A@@glm@@QAEAAU?$vec@$01N$0A@@1@H@Z ; glm::mat<3,2,double,0>::operator[]
PUBLIC	??A?$mat@$02$01N$0A@@glm@@QBEABU?$vec@$01N$0A@@1@H@Z ; glm::mat<3,2,double,0>::operator[]
PUBLIC	??0?$mat@$02$01N$0A@@glm@@QAE@N@Z		; glm::mat<3,2,double,0>::mat<3,2,double,0>
PUBLIC	??0?$mat@$02$01N$0A@@glm@@QAE@NNNNNN@Z		; glm::mat<3,2,double,0>::mat<3,2,double,0>
PUBLIC	??0?$mat@$02$01N$0A@@glm@@QAE@ABU?$vec@$01N$0A@@1@00@Z ; glm::mat<3,2,double,0>::mat<3,2,double,0>
PUBLIC	??0?$mat@$02$01N$0A@@glm@@QAE@ABU?$mat@$01$01N$0A@@1@@Z ; glm::mat<3,2,double,0>::mat<3,2,double,0>
PUBLIC	??0?$mat@$02$01N$0A@@glm@@QAE@ABU?$mat@$02$02N$0A@@1@@Z ; glm::mat<3,2,double,0>::mat<3,2,double,0>
PUBLIC	??0?$mat@$02$01N$0A@@glm@@QAE@ABU?$mat@$03$03N$0A@@1@@Z ; glm::mat<3,2,double,0>::mat<3,2,double,0>
PUBLIC	??0?$mat@$02$01N$0A@@glm@@QAE@ABU?$mat@$01$02N$0A@@1@@Z ; glm::mat<3,2,double,0>::mat<3,2,double,0>
PUBLIC	??0?$mat@$02$01N$0A@@glm@@QAE@ABU?$mat@$01$03N$0A@@1@@Z ; glm::mat<3,2,double,0>::mat<3,2,double,0>
PUBLIC	??0?$mat@$02$01N$0A@@glm@@QAE@ABU?$mat@$02$03N$0A@@1@@Z ; glm::mat<3,2,double,0>::mat<3,2,double,0>
PUBLIC	??0?$mat@$02$01N$0A@@glm@@QAE@ABU?$mat@$03$01N$0A@@1@@Z ; glm::mat<3,2,double,0>::mat<3,2,double,0>
PUBLIC	??0?$mat@$02$01N$0A@@glm@@QAE@ABU?$mat@$03$02N$0A@@1@@Z ; glm::mat<3,2,double,0>::mat<3,2,double,0>
PUBLIC	??E?$mat@$02$01N$0A@@glm@@QAEAAU01@XZ		; glm::mat<3,2,double,0>::operator++
PUBLIC	??F?$mat@$02$01N$0A@@glm@@QAEAAU01@XZ		; glm::mat<3,2,double,0>::operator--
PUBLIC	??E?$mat@$02$01N$0A@@glm@@QAE?AU01@H@Z		; glm::mat<3,2,double,0>::operator++
PUBLIC	??F?$mat@$02$01N$0A@@glm@@QAE?AU01@H@Z		; glm::mat<3,2,double,0>::operator--
PUBLIC	?length@?$mat@$02$02M$01@glm@@SAHXZ		; glm::mat<3,3,float,2>::length
PUBLIC	??A?$mat@$02$02M$01@glm@@QAEAAU?$vec@$02M$01@1@H@Z ; glm::mat<3,3,float,2>::operator[]
PUBLIC	??A?$mat@$02$02M$01@glm@@QBEABU?$vec@$02M$01@1@H@Z ; glm::mat<3,3,float,2>::operator[]
PUBLIC	??0?$mat@$02$02M$01@glm@@QAE@M@Z		; glm::mat<3,3,float,2>::mat<3,3,float,2>
PUBLIC	??0?$mat@$02$02M$01@glm@@QAE@MMMMMMMMM@Z	; glm::mat<3,3,float,2>::mat<3,3,float,2>
PUBLIC	??0?$mat@$02$02M$01@glm@@QAE@ABU?$vec@$02M$01@1@00@Z ; glm::mat<3,3,float,2>::mat<3,3,float,2>
PUBLIC	??0?$mat@$02$02M$01@glm@@QAE@ABU?$mat@$01$01M$01@1@@Z ; glm::mat<3,3,float,2>::mat<3,3,float,2>
PUBLIC	??0?$mat@$02$02M$01@glm@@QAE@ABU?$mat@$03$03M$01@1@@Z ; glm::mat<3,3,float,2>::mat<3,3,float,2>
PUBLIC	??0?$mat@$02$02M$01@glm@@QAE@ABU?$mat@$01$02M$01@1@@Z ; glm::mat<3,3,float,2>::mat<3,3,float,2>
PUBLIC	??0?$mat@$02$02M$01@glm@@QAE@ABU?$mat@$02$01M$01@1@@Z ; glm::mat<3,3,float,2>::mat<3,3,float,2>
PUBLIC	??0?$mat@$02$02M$01@glm@@QAE@ABU?$mat@$01$03M$01@1@@Z ; glm::mat<3,3,float,2>::mat<3,3,float,2>
PUBLIC	??0?$mat@$02$02M$01@glm@@QAE@ABU?$mat@$03$01M$01@1@@Z ; glm::mat<3,3,float,2>::mat<3,3,float,2>
PUBLIC	??0?$mat@$02$02M$01@glm@@QAE@ABU?$mat@$02$03M$01@1@@Z ; glm::mat<3,3,float,2>::mat<3,3,float,2>
PUBLIC	??0?$mat@$02$02M$01@glm@@QAE@ABU?$mat@$03$02M$01@1@@Z ; glm::mat<3,3,float,2>::mat<3,3,float,2>
PUBLIC	??E?$mat@$02$02M$01@glm@@QAEAAU01@XZ		; glm::mat<3,3,float,2>::operator++
PUBLIC	??F?$mat@$02$02M$01@glm@@QAEAAU01@XZ		; glm::mat<3,3,float,2>::operator--
PUBLIC	??E?$mat@$02$02M$01@glm@@QAE?AU01@H@Z		; glm::mat<3,3,float,2>::operator++
PUBLIC	??F?$mat@$02$02M$01@glm@@QAE?AU01@H@Z		; glm::mat<3,3,float,2>::operator--
PUBLIC	?length@?$mat@$02$02N$01@glm@@SAHXZ		; glm::mat<3,3,double,2>::length
PUBLIC	??A?$mat@$02$02N$01@glm@@QAEAAU?$vec@$02N$01@1@H@Z ; glm::mat<3,3,double,2>::operator[]
PUBLIC	??A?$mat@$02$02N$01@glm@@QBEABU?$vec@$02N$01@1@H@Z ; glm::mat<3,3,double,2>::operator[]
PUBLIC	??0?$mat@$02$02N$01@glm@@QAE@N@Z		; glm::mat<3,3,double,2>::mat<3,3,double,2>
PUBLIC	??0?$mat@$02$02N$01@glm@@QAE@NNNNNNNNN@Z	; glm::mat<3,3,double,2>::mat<3,3,double,2>
PUBLIC	??0?$mat@$02$02N$01@glm@@QAE@ABU?$vec@$02N$01@1@00@Z ; glm::mat<3,3,double,2>::mat<3,3,double,2>
PUBLIC	??0?$mat@$02$02N$01@glm@@QAE@ABU?$mat@$01$01N$01@1@@Z ; glm::mat<3,3,double,2>::mat<3,3,double,2>
PUBLIC	??0?$mat@$02$02N$01@glm@@QAE@ABU?$mat@$03$03N$01@1@@Z ; glm::mat<3,3,double,2>::mat<3,3,double,2>
PUBLIC	??0?$mat@$02$02N$01@glm@@QAE@ABU?$mat@$01$02N$01@1@@Z ; glm::mat<3,3,double,2>::mat<3,3,double,2>
PUBLIC	??0?$mat@$02$02N$01@glm@@QAE@ABU?$mat@$02$01N$01@1@@Z ; glm::mat<3,3,double,2>::mat<3,3,double,2>
PUBLIC	??0?$mat@$02$02N$01@glm@@QAE@ABU?$mat@$01$03N$01@1@@Z ; glm::mat<3,3,double,2>::mat<3,3,double,2>
PUBLIC	??0?$mat@$02$02N$01@glm@@QAE@ABU?$mat@$03$01N$01@1@@Z ; glm::mat<3,3,double,2>::mat<3,3,double,2>
PUBLIC	??0?$mat@$02$02N$01@glm@@QAE@ABU?$mat@$02$03N$01@1@@Z ; glm::mat<3,3,double,2>::mat<3,3,double,2>
PUBLIC	??0?$mat@$02$02N$01@glm@@QAE@ABU?$mat@$03$02N$01@1@@Z ; glm::mat<3,3,double,2>::mat<3,3,double,2>
PUBLIC	??E?$mat@$02$02N$01@glm@@QAEAAU01@XZ		; glm::mat<3,3,double,2>::operator++
PUBLIC	??F?$mat@$02$02N$01@glm@@QAEAAU01@XZ		; glm::mat<3,3,double,2>::operator--
PUBLIC	??E?$mat@$02$02N$01@glm@@QAE?AU01@H@Z		; glm::mat<3,3,double,2>::operator++
PUBLIC	??F?$mat@$02$02N$01@glm@@QAE?AU01@H@Z		; glm::mat<3,3,double,2>::operator--
PUBLIC	?length@?$mat@$02$02M$00@glm@@SAHXZ		; glm::mat<3,3,float,1>::length
PUBLIC	??A?$mat@$02$02M$00@glm@@QAEAAU?$vec@$02M$00@1@H@Z ; glm::mat<3,3,float,1>::operator[]
PUBLIC	??A?$mat@$02$02M$00@glm@@QBEABU?$vec@$02M$00@1@H@Z ; glm::mat<3,3,float,1>::operator[]
PUBLIC	??0?$mat@$02$02M$00@glm@@QAE@M@Z		; glm::mat<3,3,float,1>::mat<3,3,float,1>
PUBLIC	??0?$mat@$02$02M$00@glm@@QAE@MMMMMMMMM@Z	; glm::mat<3,3,float,1>::mat<3,3,float,1>
PUBLIC	??0?$mat@$02$02M$00@glm@@QAE@ABU?$vec@$02M$00@1@00@Z ; glm::mat<3,3,float,1>::mat<3,3,float,1>
PUBLIC	??0?$mat@$02$02M$00@glm@@QAE@ABU?$mat@$01$01M$00@1@@Z ; glm::mat<3,3,float,1>::mat<3,3,float,1>
PUBLIC	??0?$mat@$02$02M$00@glm@@QAE@ABU?$mat@$03$03M$00@1@@Z ; glm::mat<3,3,float,1>::mat<3,3,float,1>
PUBLIC	??0?$mat@$02$02M$00@glm@@QAE@ABU?$mat@$01$02M$00@1@@Z ; glm::mat<3,3,float,1>::mat<3,3,float,1>
PUBLIC	??0?$mat@$02$02M$00@glm@@QAE@ABU?$mat@$02$01M$00@1@@Z ; glm::mat<3,3,float,1>::mat<3,3,float,1>
PUBLIC	??0?$mat@$02$02M$00@glm@@QAE@ABU?$mat@$01$03M$00@1@@Z ; glm::mat<3,3,float,1>::mat<3,3,float,1>
PUBLIC	??0?$mat@$02$02M$00@glm@@QAE@ABU?$mat@$03$01M$00@1@@Z ; glm::mat<3,3,float,1>::mat<3,3,float,1>
PUBLIC	??0?$mat@$02$02M$00@glm@@QAE@ABU?$mat@$02$03M$00@1@@Z ; glm::mat<3,3,float,1>::mat<3,3,float,1>
PUBLIC	??0?$mat@$02$02M$00@glm@@QAE@ABU?$mat@$03$02M$00@1@@Z ; glm::mat<3,3,float,1>::mat<3,3,float,1>
PUBLIC	??E?$mat@$02$02M$00@glm@@QAEAAU01@XZ		; glm::mat<3,3,float,1>::operator++
PUBLIC	??F?$mat@$02$02M$00@glm@@QAEAAU01@XZ		; glm::mat<3,3,float,1>::operator--
PUBLIC	??E?$mat@$02$02M$00@glm@@QAE?AU01@H@Z		; glm::mat<3,3,float,1>::operator++
PUBLIC	??F?$mat@$02$02M$00@glm@@QAE?AU01@H@Z		; glm::mat<3,3,float,1>::operator--
PUBLIC	?length@?$mat@$02$02N$00@glm@@SAHXZ		; glm::mat<3,3,double,1>::length
PUBLIC	??A?$mat@$02$02N$00@glm@@QAEAAU?$vec@$02N$00@1@H@Z ; glm::mat<3,3,double,1>::operator[]
PUBLIC	??A?$mat@$02$02N$00@glm@@QBEABU?$vec@$02N$00@1@H@Z ; glm::mat<3,3,double,1>::operator[]
PUBLIC	??0?$mat@$02$02N$00@glm@@QAE@N@Z		; glm::mat<3,3,double,1>::mat<3,3,double,1>
PUBLIC	??0?$mat@$02$02N$00@glm@@QAE@NNNNNNNNN@Z	; glm::mat<3,3,double,1>::mat<3,3,double,1>
PUBLIC	??0?$mat@$02$02N$00@glm@@QAE@ABU?$vec@$02N$00@1@00@Z ; glm::mat<3,3,double,1>::mat<3,3,double,1>
PUBLIC	??0?$mat@$02$02N$00@glm@@QAE@ABU?$mat@$01$01N$00@1@@Z ; glm::mat<3,3,double,1>::mat<3,3,double,1>
PUBLIC	??0?$mat@$02$02N$00@glm@@QAE@ABU?$mat@$03$03N$00@1@@Z ; glm::mat<3,3,double,1>::mat<3,3,double,1>
PUBLIC	??0?$mat@$02$02N$00@glm@@QAE@ABU?$mat@$01$02N$00@1@@Z ; glm::mat<3,3,double,1>::mat<3,3,double,1>
PUBLIC	??0?$mat@$02$02N$00@glm@@QAE@ABU?$mat@$02$01N$00@1@@Z ; glm::mat<3,3,double,1>::mat<3,3,double,1>
PUBLIC	??0?$mat@$02$02N$00@glm@@QAE@ABU?$mat@$01$03N$00@1@@Z ; glm::mat<3,3,double,1>::mat<3,3,double,1>
PUBLIC	??0?$mat@$02$02N$00@glm@@QAE@ABU?$mat@$03$01N$00@1@@Z ; glm::mat<3,3,double,1>::mat<3,3,double,1>
PUBLIC	??0?$mat@$02$02N$00@glm@@QAE@ABU?$mat@$02$03N$00@1@@Z ; glm::mat<3,3,double,1>::mat<3,3,double,1>
PUBLIC	??0?$mat@$02$02N$00@glm@@QAE@ABU?$mat@$03$02N$00@1@@Z ; glm::mat<3,3,double,1>::mat<3,3,double,1>
PUBLIC	??E?$mat@$02$02N$00@glm@@QAEAAU01@XZ		; glm::mat<3,3,double,1>::operator++
PUBLIC	??F?$mat@$02$02N$00@glm@@QAEAAU01@XZ		; glm::mat<3,3,double,1>::operator--
PUBLIC	??E?$mat@$02$02N$00@glm@@QAE?AU01@H@Z		; glm::mat<3,3,double,1>::operator++
PUBLIC	??F?$mat@$02$02N$00@glm@@QAE?AU01@H@Z		; glm::mat<3,3,double,1>::operator--
PUBLIC	?length@?$mat@$02$02M$0A@@glm@@SAHXZ		; glm::mat<3,3,float,0>::length
PUBLIC	??A?$mat@$02$02M$0A@@glm@@QAEAAU?$vec@$02M$0A@@1@H@Z ; glm::mat<3,3,float,0>::operator[]
PUBLIC	??A?$mat@$02$02M$0A@@glm@@QBEABU?$vec@$02M$0A@@1@H@Z ; glm::mat<3,3,float,0>::operator[]
PUBLIC	??0?$mat@$02$02M$0A@@glm@@QAE@M@Z		; glm::mat<3,3,float,0>::mat<3,3,float,0>
PUBLIC	??0?$mat@$02$02M$0A@@glm@@QAE@MMMMMMMMM@Z	; glm::mat<3,3,float,0>::mat<3,3,float,0>
PUBLIC	??0?$mat@$02$02M$0A@@glm@@QAE@ABU?$vec@$02M$0A@@1@00@Z ; glm::mat<3,3,float,0>::mat<3,3,float,0>
PUBLIC	??0?$mat@$02$02M$0A@@glm@@QAE@ABU?$mat@$01$01M$0A@@1@@Z ; glm::mat<3,3,float,0>::mat<3,3,float,0>
PUBLIC	??0?$mat@$02$02M$0A@@glm@@QAE@ABU?$mat@$03$03M$0A@@1@@Z ; glm::mat<3,3,float,0>::mat<3,3,float,0>
PUBLIC	??0?$mat@$02$02M$0A@@glm@@QAE@ABU?$mat@$01$02M$0A@@1@@Z ; glm::mat<3,3,float,0>::mat<3,3,float,0>
PUBLIC	??0?$mat@$02$02M$0A@@glm@@QAE@ABU?$mat@$02$01M$0A@@1@@Z ; glm::mat<3,3,float,0>::mat<3,3,float,0>
PUBLIC	??0?$mat@$02$02M$0A@@glm@@QAE@ABU?$mat@$01$03M$0A@@1@@Z ; glm::mat<3,3,float,0>::mat<3,3,float,0>
PUBLIC	??0?$mat@$02$02M$0A@@glm@@QAE@ABU?$mat@$03$01M$0A@@1@@Z ; glm::mat<3,3,float,0>::mat<3,3,float,0>
PUBLIC	??0?$mat@$02$02M$0A@@glm@@QAE@ABU?$mat@$02$03M$0A@@1@@Z ; glm::mat<3,3,float,0>::mat<3,3,float,0>
PUBLIC	??0?$mat@$02$02M$0A@@glm@@QAE@ABU?$mat@$03$02M$0A@@1@@Z ; glm::mat<3,3,float,0>::mat<3,3,float,0>
PUBLIC	??E?$mat@$02$02M$0A@@glm@@QAEAAU01@XZ		; glm::mat<3,3,float,0>::operator++
PUBLIC	??F?$mat@$02$02M$0A@@glm@@QAEAAU01@XZ		; glm::mat<3,3,float,0>::operator--
PUBLIC	??E?$mat@$02$02M$0A@@glm@@QAE?AU01@H@Z		; glm::mat<3,3,float,0>::operator++
PUBLIC	??F?$mat@$02$02M$0A@@glm@@QAE?AU01@H@Z		; glm::mat<3,3,float,0>::operator--
PUBLIC	?length@?$mat@$02$02N$0A@@glm@@SAHXZ		; glm::mat<3,3,double,0>::length
PUBLIC	??A?$mat@$02$02N$0A@@glm@@QAEAAU?$vec@$02N$0A@@1@H@Z ; glm::mat<3,3,double,0>::operator[]
PUBLIC	??A?$mat@$02$02N$0A@@glm@@QBEABU?$vec@$02N$0A@@1@H@Z ; glm::mat<3,3,double,0>::operator[]
PUBLIC	??0?$mat@$02$02N$0A@@glm@@QAE@N@Z		; glm::mat<3,3,double,0>::mat<3,3,double,0>
PUBLIC	??0?$mat@$02$02N$0A@@glm@@QAE@NNNNNNNNN@Z	; glm::mat<3,3,double,0>::mat<3,3,double,0>
PUBLIC	??0?$mat@$02$02N$0A@@glm@@QAE@ABU?$vec@$02N$0A@@1@00@Z ; glm::mat<3,3,double,0>::mat<3,3,double,0>
PUBLIC	??0?$mat@$02$02N$0A@@glm@@QAE@ABU?$mat@$01$01N$0A@@1@@Z ; glm::mat<3,3,double,0>::mat<3,3,double,0>
PUBLIC	??0?$mat@$02$02N$0A@@glm@@QAE@ABU?$mat@$03$03N$0A@@1@@Z ; glm::mat<3,3,double,0>::mat<3,3,double,0>
PUBLIC	??0?$mat@$02$02N$0A@@glm@@QAE@ABU?$mat@$01$02N$0A@@1@@Z ; glm::mat<3,3,double,0>::mat<3,3,double,0>
PUBLIC	??0?$mat@$02$02N$0A@@glm@@QAE@ABU?$mat@$02$01N$0A@@1@@Z ; glm::mat<3,3,double,0>::mat<3,3,double,0>
PUBLIC	??0?$mat@$02$02N$0A@@glm@@QAE@ABU?$mat@$01$03N$0A@@1@@Z ; glm::mat<3,3,double,0>::mat<3,3,double,0>
PUBLIC	??0?$mat@$02$02N$0A@@glm@@QAE@ABU?$mat@$03$01N$0A@@1@@Z ; glm::mat<3,3,double,0>::mat<3,3,double,0>
PUBLIC	??0?$mat@$02$02N$0A@@glm@@QAE@ABU?$mat@$02$03N$0A@@1@@Z ; glm::mat<3,3,double,0>::mat<3,3,double,0>
PUBLIC	??0?$mat@$02$02N$0A@@glm@@QAE@ABU?$mat@$03$02N$0A@@1@@Z ; glm::mat<3,3,double,0>::mat<3,3,double,0>
PUBLIC	??E?$mat@$02$02N$0A@@glm@@QAEAAU01@XZ		; glm::mat<3,3,double,0>::operator++
PUBLIC	??F?$mat@$02$02N$0A@@glm@@QAEAAU01@XZ		; glm::mat<3,3,double,0>::operator--
PUBLIC	??E?$mat@$02$02N$0A@@glm@@QAE?AU01@H@Z		; glm::mat<3,3,double,0>::operator++
PUBLIC	??F?$mat@$02$02N$0A@@glm@@QAE?AU01@H@Z		; glm::mat<3,3,double,0>::operator--
PUBLIC	?length@?$mat@$02$03M$01@glm@@SAHXZ		; glm::mat<3,4,float,2>::length
PUBLIC	??A?$mat@$02$03M$01@glm@@QAEAAU?$vec@$03M$01@1@H@Z ; glm::mat<3,4,float,2>::operator[]
PUBLIC	??A?$mat@$02$03M$01@glm@@QBEABU?$vec@$03M$01@1@H@Z ; glm::mat<3,4,float,2>::operator[]
PUBLIC	??0?$mat@$02$03M$01@glm@@QAE@M@Z		; glm::mat<3,4,float,2>::mat<3,4,float,2>
PUBLIC	??0?$mat@$02$03M$01@glm@@QAE@MMMMMMMMMMMM@Z	; glm::mat<3,4,float,2>::mat<3,4,float,2>
PUBLIC	??0?$mat@$02$03M$01@glm@@QAE@ABU?$vec@$03M$01@1@00@Z ; glm::mat<3,4,float,2>::mat<3,4,float,2>
PUBLIC	??0?$mat@$02$03M$01@glm@@QAE@ABU?$mat@$01$01M$01@1@@Z ; glm::mat<3,4,float,2>::mat<3,4,float,2>
PUBLIC	??0?$mat@$02$03M$01@glm@@QAE@ABU?$mat@$02$02M$01@1@@Z ; glm::mat<3,4,float,2>::mat<3,4,float,2>
PUBLIC	??0?$mat@$02$03M$01@glm@@QAE@ABU?$mat@$03$03M$01@1@@Z ; glm::mat<3,4,float,2>::mat<3,4,float,2>
PUBLIC	??0?$mat@$02$03M$01@glm@@QAE@ABU?$mat@$01$02M$01@1@@Z ; glm::mat<3,4,float,2>::mat<3,4,float,2>
PUBLIC	??0?$mat@$02$03M$01@glm@@QAE@ABU?$mat@$02$01M$01@1@@Z ; glm::mat<3,4,float,2>::mat<3,4,float,2>
PUBLIC	??0?$mat@$02$03M$01@glm@@QAE@ABU?$mat@$01$03M$01@1@@Z ; glm::mat<3,4,float,2>::mat<3,4,float,2>
PUBLIC	??0?$mat@$02$03M$01@glm@@QAE@ABU?$mat@$03$01M$01@1@@Z ; glm::mat<3,4,float,2>::mat<3,4,float,2>
PUBLIC	??0?$mat@$02$03M$01@glm@@QAE@ABU?$mat@$03$02M$01@1@@Z ; glm::mat<3,4,float,2>::mat<3,4,float,2>
PUBLIC	??E?$mat@$02$03M$01@glm@@QAEAAU01@XZ		; glm::mat<3,4,float,2>::operator++
PUBLIC	??F?$mat@$02$03M$01@glm@@QAEAAU01@XZ		; glm::mat<3,4,float,2>::operator--
PUBLIC	??E?$mat@$02$03M$01@glm@@QAE?AU01@H@Z		; glm::mat<3,4,float,2>::operator++
PUBLIC	??F?$mat@$02$03M$01@glm@@QAE?AU01@H@Z		; glm::mat<3,4,float,2>::operator--
PUBLIC	?length@?$mat@$02$03N$01@glm@@SAHXZ		; glm::mat<3,4,double,2>::length
PUBLIC	??A?$mat@$02$03N$01@glm@@QAEAAU?$vec@$03N$01@1@H@Z ; glm::mat<3,4,double,2>::operator[]
PUBLIC	??A?$mat@$02$03N$01@glm@@QBEABU?$vec@$03N$01@1@H@Z ; glm::mat<3,4,double,2>::operator[]
PUBLIC	??0?$mat@$02$03N$01@glm@@QAE@N@Z		; glm::mat<3,4,double,2>::mat<3,4,double,2>
PUBLIC	??0?$mat@$02$03N$01@glm@@QAE@NNNNNNNNNNNN@Z	; glm::mat<3,4,double,2>::mat<3,4,double,2>
PUBLIC	??0?$mat@$02$03N$01@glm@@QAE@ABU?$vec@$03N$01@1@00@Z ; glm::mat<3,4,double,2>::mat<3,4,double,2>
PUBLIC	??0?$mat@$02$03N$01@glm@@QAE@ABU?$mat@$01$01N$01@1@@Z ; glm::mat<3,4,double,2>::mat<3,4,double,2>
PUBLIC	??0?$mat@$02$03N$01@glm@@QAE@ABU?$mat@$02$02N$01@1@@Z ; glm::mat<3,4,double,2>::mat<3,4,double,2>
PUBLIC	??0?$mat@$02$03N$01@glm@@QAE@ABU?$mat@$03$03N$01@1@@Z ; glm::mat<3,4,double,2>::mat<3,4,double,2>
PUBLIC	??0?$mat@$02$03N$01@glm@@QAE@ABU?$mat@$01$02N$01@1@@Z ; glm::mat<3,4,double,2>::mat<3,4,double,2>
PUBLIC	??0?$mat@$02$03N$01@glm@@QAE@ABU?$mat@$02$01N$01@1@@Z ; glm::mat<3,4,double,2>::mat<3,4,double,2>
PUBLIC	??0?$mat@$02$03N$01@glm@@QAE@ABU?$mat@$01$03N$01@1@@Z ; glm::mat<3,4,double,2>::mat<3,4,double,2>
PUBLIC	??0?$mat@$02$03N$01@glm@@QAE@ABU?$mat@$03$01N$01@1@@Z ; glm::mat<3,4,double,2>::mat<3,4,double,2>
PUBLIC	??0?$mat@$02$03N$01@glm@@QAE@ABU?$mat@$03$02N$01@1@@Z ; glm::mat<3,4,double,2>::mat<3,4,double,2>
PUBLIC	??E?$mat@$02$03N$01@glm@@QAEAAU01@XZ		; glm::mat<3,4,double,2>::operator++
PUBLIC	??F?$mat@$02$03N$01@glm@@QAEAAU01@XZ		; glm::mat<3,4,double,2>::operator--
PUBLIC	??E?$mat@$02$03N$01@glm@@QAE?AU01@H@Z		; glm::mat<3,4,double,2>::operator++
PUBLIC	??F?$mat@$02$03N$01@glm@@QAE?AU01@H@Z		; glm::mat<3,4,double,2>::operator--
PUBLIC	?length@?$mat@$02$03M$00@glm@@SAHXZ		; glm::mat<3,4,float,1>::length
PUBLIC	??A?$mat@$02$03M$00@glm@@QAEAAU?$vec@$03M$00@1@H@Z ; glm::mat<3,4,float,1>::operator[]
PUBLIC	??A?$mat@$02$03M$00@glm@@QBEABU?$vec@$03M$00@1@H@Z ; glm::mat<3,4,float,1>::operator[]
PUBLIC	??0?$mat@$02$03M$00@glm@@QAE@M@Z		; glm::mat<3,4,float,1>::mat<3,4,float,1>
PUBLIC	??0?$mat@$02$03M$00@glm@@QAE@MMMMMMMMMMMM@Z	; glm::mat<3,4,float,1>::mat<3,4,float,1>
PUBLIC	??0?$mat@$02$03M$00@glm@@QAE@ABU?$vec@$03M$00@1@00@Z ; glm::mat<3,4,float,1>::mat<3,4,float,1>
PUBLIC	??0?$mat@$02$03M$00@glm@@QAE@ABU?$mat@$01$01M$00@1@@Z ; glm::mat<3,4,float,1>::mat<3,4,float,1>
PUBLIC	??0?$mat@$02$03M$00@glm@@QAE@ABU?$mat@$02$02M$00@1@@Z ; glm::mat<3,4,float,1>::mat<3,4,float,1>
PUBLIC	??0?$mat@$02$03M$00@glm@@QAE@ABU?$mat@$03$03M$00@1@@Z ; glm::mat<3,4,float,1>::mat<3,4,float,1>
PUBLIC	??0?$mat@$02$03M$00@glm@@QAE@ABU?$mat@$01$02M$00@1@@Z ; glm::mat<3,4,float,1>::mat<3,4,float,1>
PUBLIC	??0?$mat@$02$03M$00@glm@@QAE@ABU?$mat@$02$01M$00@1@@Z ; glm::mat<3,4,float,1>::mat<3,4,float,1>
PUBLIC	??0?$mat@$02$03M$00@glm@@QAE@ABU?$mat@$01$03M$00@1@@Z ; glm::mat<3,4,float,1>::mat<3,4,float,1>
PUBLIC	??0?$mat@$02$03M$00@glm@@QAE@ABU?$mat@$03$01M$00@1@@Z ; glm::mat<3,4,float,1>::mat<3,4,float,1>
PUBLIC	??0?$mat@$02$03M$00@glm@@QAE@ABU?$mat@$03$02M$00@1@@Z ; glm::mat<3,4,float,1>::mat<3,4,float,1>
PUBLIC	??E?$mat@$02$03M$00@glm@@QAEAAU01@XZ		; glm::mat<3,4,float,1>::operator++
PUBLIC	??F?$mat@$02$03M$00@glm@@QAEAAU01@XZ		; glm::mat<3,4,float,1>::operator--
PUBLIC	??E?$mat@$02$03M$00@glm@@QAE?AU01@H@Z		; glm::mat<3,4,float,1>::operator++
PUBLIC	??F?$mat@$02$03M$00@glm@@QAE?AU01@H@Z		; glm::mat<3,4,float,1>::operator--
PUBLIC	?length@?$mat@$02$03N$00@glm@@SAHXZ		; glm::mat<3,4,double,1>::length
PUBLIC	??A?$mat@$02$03N$00@glm@@QAEAAU?$vec@$03N$00@1@H@Z ; glm::mat<3,4,double,1>::operator[]
PUBLIC	??A?$mat@$02$03N$00@glm@@QBEABU?$vec@$03N$00@1@H@Z ; glm::mat<3,4,double,1>::operator[]
PUBLIC	??0?$mat@$02$03N$00@glm@@QAE@N@Z		; glm::mat<3,4,double,1>::mat<3,4,double,1>
PUBLIC	??0?$mat@$02$03N$00@glm@@QAE@NNNNNNNNNNNN@Z	; glm::mat<3,4,double,1>::mat<3,4,double,1>
PUBLIC	??0?$mat@$02$03N$00@glm@@QAE@ABU?$vec@$03N$00@1@00@Z ; glm::mat<3,4,double,1>::mat<3,4,double,1>
PUBLIC	??0?$mat@$02$03N$00@glm@@QAE@ABU?$mat@$01$01N$00@1@@Z ; glm::mat<3,4,double,1>::mat<3,4,double,1>
PUBLIC	??0?$mat@$02$03N$00@glm@@QAE@ABU?$mat@$02$02N$00@1@@Z ; glm::mat<3,4,double,1>::mat<3,4,double,1>
PUBLIC	??0?$mat@$02$03N$00@glm@@QAE@ABU?$mat@$03$03N$00@1@@Z ; glm::mat<3,4,double,1>::mat<3,4,double,1>
PUBLIC	??0?$mat@$02$03N$00@glm@@QAE@ABU?$mat@$01$02N$00@1@@Z ; glm::mat<3,4,double,1>::mat<3,4,double,1>
PUBLIC	??0?$mat@$02$03N$00@glm@@QAE@ABU?$mat@$02$01N$00@1@@Z ; glm::mat<3,4,double,1>::mat<3,4,double,1>
PUBLIC	??0?$mat@$02$03N$00@glm@@QAE@ABU?$mat@$01$03N$00@1@@Z ; glm::mat<3,4,double,1>::mat<3,4,double,1>
PUBLIC	??0?$mat@$02$03N$00@glm@@QAE@ABU?$mat@$03$01N$00@1@@Z ; glm::mat<3,4,double,1>::mat<3,4,double,1>
PUBLIC	??0?$mat@$02$03N$00@glm@@QAE@ABU?$mat@$03$02N$00@1@@Z ; glm::mat<3,4,double,1>::mat<3,4,double,1>
PUBLIC	??E?$mat@$02$03N$00@glm@@QAEAAU01@XZ		; glm::mat<3,4,double,1>::operator++
PUBLIC	??F?$mat@$02$03N$00@glm@@QAEAAU01@XZ		; glm::mat<3,4,double,1>::operator--
PUBLIC	??E?$mat@$02$03N$00@glm@@QAE?AU01@H@Z		; glm::mat<3,4,double,1>::operator++
PUBLIC	??F?$mat@$02$03N$00@glm@@QAE?AU01@H@Z		; glm::mat<3,4,double,1>::operator--
PUBLIC	?length@?$mat@$02$03M$0A@@glm@@SAHXZ		; glm::mat<3,4,float,0>::length
PUBLIC	??A?$mat@$02$03M$0A@@glm@@QAEAAU?$vec@$03M$0A@@1@H@Z ; glm::mat<3,4,float,0>::operator[]
PUBLIC	??A?$mat@$02$03M$0A@@glm@@QBEABU?$vec@$03M$0A@@1@H@Z ; glm::mat<3,4,float,0>::operator[]
PUBLIC	??0?$mat@$02$03M$0A@@glm@@QAE@M@Z		; glm::mat<3,4,float,0>::mat<3,4,float,0>
PUBLIC	??0?$mat@$02$03M$0A@@glm@@QAE@MMMMMMMMMMMM@Z	; glm::mat<3,4,float,0>::mat<3,4,float,0>
PUBLIC	??0?$mat@$02$03M$0A@@glm@@QAE@ABU?$vec@$03M$0A@@1@00@Z ; glm::mat<3,4,float,0>::mat<3,4,float,0>
PUBLIC	??0?$mat@$02$03M$0A@@glm@@QAE@ABU?$mat@$01$01M$0A@@1@@Z ; glm::mat<3,4,float,0>::mat<3,4,float,0>
PUBLIC	??0?$mat@$02$03M$0A@@glm@@QAE@ABU?$mat@$02$02M$0A@@1@@Z ; glm::mat<3,4,float,0>::mat<3,4,float,0>
PUBLIC	??0?$mat@$02$03M$0A@@glm@@QAE@ABU?$mat@$03$03M$0A@@1@@Z ; glm::mat<3,4,float,0>::mat<3,4,float,0>
PUBLIC	??0?$mat@$02$03M$0A@@glm@@QAE@ABU?$mat@$01$02M$0A@@1@@Z ; glm::mat<3,4,float,0>::mat<3,4,float,0>
PUBLIC	??0?$mat@$02$03M$0A@@glm@@QAE@ABU?$mat@$02$01M$0A@@1@@Z ; glm::mat<3,4,float,0>::mat<3,4,float,0>
PUBLIC	??0?$mat@$02$03M$0A@@glm@@QAE@ABU?$mat@$01$03M$0A@@1@@Z ; glm::mat<3,4,float,0>::mat<3,4,float,0>
PUBLIC	??0?$mat@$02$03M$0A@@glm@@QAE@ABU?$mat@$03$01M$0A@@1@@Z ; glm::mat<3,4,float,0>::mat<3,4,float,0>
PUBLIC	??0?$mat@$02$03M$0A@@glm@@QAE@ABU?$mat@$03$02M$0A@@1@@Z ; glm::mat<3,4,float,0>::mat<3,4,float,0>
PUBLIC	??E?$mat@$02$03M$0A@@glm@@QAEAAU01@XZ		; glm::mat<3,4,float,0>::operator++
PUBLIC	??F?$mat@$02$03M$0A@@glm@@QAEAAU01@XZ		; glm::mat<3,4,float,0>::operator--
PUBLIC	??E?$mat@$02$03M$0A@@glm@@QAE?AU01@H@Z		; glm::mat<3,4,float,0>::operator++
PUBLIC	??F?$mat@$02$03M$0A@@glm@@QAE?AU01@H@Z		; glm::mat<3,4,float,0>::operator--
PUBLIC	?length@?$mat@$02$03N$0A@@glm@@SAHXZ		; glm::mat<3,4,double,0>::length
PUBLIC	??A?$mat@$02$03N$0A@@glm@@QAEAAU?$vec@$03N$0A@@1@H@Z ; glm::mat<3,4,double,0>::operator[]
PUBLIC	??A?$mat@$02$03N$0A@@glm@@QBEABU?$vec@$03N$0A@@1@H@Z ; glm::mat<3,4,double,0>::operator[]
PUBLIC	??0?$mat@$02$03N$0A@@glm@@QAE@N@Z		; glm::mat<3,4,double,0>::mat<3,4,double,0>
PUBLIC	??0?$mat@$02$03N$0A@@glm@@QAE@NNNNNNNNNNNN@Z	; glm::mat<3,4,double,0>::mat<3,4,double,0>
PUBLIC	??0?$mat@$02$03N$0A@@glm@@QAE@ABU?$vec@$03N$0A@@1@00@Z ; glm::mat<3,4,double,0>::mat<3,4,double,0>
PUBLIC	??0?$mat@$02$03N$0A@@glm@@QAE@ABU?$mat@$01$01N$0A@@1@@Z ; glm::mat<3,4,double,0>::mat<3,4,double,0>
PUBLIC	??0?$mat@$02$03N$0A@@glm@@QAE@ABU?$mat@$02$02N$0A@@1@@Z ; glm::mat<3,4,double,0>::mat<3,4,double,0>
PUBLIC	??0?$mat@$02$03N$0A@@glm@@QAE@ABU?$mat@$03$03N$0A@@1@@Z ; glm::mat<3,4,double,0>::mat<3,4,double,0>
PUBLIC	??0?$mat@$02$03N$0A@@glm@@QAE@ABU?$mat@$01$02N$0A@@1@@Z ; glm::mat<3,4,double,0>::mat<3,4,double,0>
PUBLIC	??0?$mat@$02$03N$0A@@glm@@QAE@ABU?$mat@$02$01N$0A@@1@@Z ; glm::mat<3,4,double,0>::mat<3,4,double,0>
PUBLIC	??0?$mat@$02$03N$0A@@glm@@QAE@ABU?$mat@$01$03N$0A@@1@@Z ; glm::mat<3,4,double,0>::mat<3,4,double,0>
PUBLIC	??0?$mat@$02$03N$0A@@glm@@QAE@ABU?$mat@$03$01N$0A@@1@@Z ; glm::mat<3,4,double,0>::mat<3,4,double,0>
PUBLIC	??0?$mat@$02$03N$0A@@glm@@QAE@ABU?$mat@$03$02N$0A@@1@@Z ; glm::mat<3,4,double,0>::mat<3,4,double,0>
PUBLIC	??E?$mat@$02$03N$0A@@glm@@QAEAAU01@XZ		; glm::mat<3,4,double,0>::operator++
PUBLIC	??F?$mat@$02$03N$0A@@glm@@QAEAAU01@XZ		; glm::mat<3,4,double,0>::operator--
PUBLIC	??E?$mat@$02$03N$0A@@glm@@QAE?AU01@H@Z		; glm::mat<3,4,double,0>::operator++
PUBLIC	??F?$mat@$02$03N$0A@@glm@@QAE?AU01@H@Z		; glm::mat<3,4,double,0>::operator--
PUBLIC	?length@?$mat@$03$01M$01@glm@@SAHXZ		; glm::mat<4,2,float,2>::length
PUBLIC	??A?$mat@$03$01M$01@glm@@QAEAAU?$vec@$01M$01@1@H@Z ; glm::mat<4,2,float,2>::operator[]
PUBLIC	??A?$mat@$03$01M$01@glm@@QBEABU?$vec@$01M$01@1@H@Z ; glm::mat<4,2,float,2>::operator[]
PUBLIC	??0?$mat@$03$01M$01@glm@@QAE@M@Z		; glm::mat<4,2,float,2>::mat<4,2,float,2>
PUBLIC	??0?$mat@$03$01M$01@glm@@QAE@MMMMMMMM@Z		; glm::mat<4,2,float,2>::mat<4,2,float,2>
PUBLIC	??0?$mat@$03$01M$01@glm@@QAE@ABU?$vec@$01M$01@1@000@Z ; glm::mat<4,2,float,2>::mat<4,2,float,2>
PUBLIC	??0?$mat@$03$01M$01@glm@@QAE@ABU?$mat@$01$01M$01@1@@Z ; glm::mat<4,2,float,2>::mat<4,2,float,2>
PUBLIC	??0?$mat@$03$01M$01@glm@@QAE@ABU?$mat@$02$02M$01@1@@Z ; glm::mat<4,2,float,2>::mat<4,2,float,2>
PUBLIC	??0?$mat@$03$01M$01@glm@@QAE@ABU?$mat@$03$03M$01@1@@Z ; glm::mat<4,2,float,2>::mat<4,2,float,2>
PUBLIC	??0?$mat@$03$01M$01@glm@@QAE@ABU?$mat@$01$02M$01@1@@Z ; glm::mat<4,2,float,2>::mat<4,2,float,2>
PUBLIC	??0?$mat@$03$01M$01@glm@@QAE@ABU?$mat@$02$01M$01@1@@Z ; glm::mat<4,2,float,2>::mat<4,2,float,2>
PUBLIC	??0?$mat@$03$01M$01@glm@@QAE@ABU?$mat@$01$03M$01@1@@Z ; glm::mat<4,2,float,2>::mat<4,2,float,2>
PUBLIC	??0?$mat@$03$01M$01@glm@@QAE@ABU?$mat@$03$02M$01@1@@Z ; glm::mat<4,2,float,2>::mat<4,2,float,2>
PUBLIC	??0?$mat@$03$01M$01@glm@@QAE@ABU?$mat@$02$03M$01@1@@Z ; glm::mat<4,2,float,2>::mat<4,2,float,2>
PUBLIC	??E?$mat@$03$01M$01@glm@@QAEAAU01@XZ		; glm::mat<4,2,float,2>::operator++
PUBLIC	??F?$mat@$03$01M$01@glm@@QAEAAU01@XZ		; glm::mat<4,2,float,2>::operator--
PUBLIC	??E?$mat@$03$01M$01@glm@@QAE?AU01@H@Z		; glm::mat<4,2,float,2>::operator++
PUBLIC	??F?$mat@$03$01M$01@glm@@QAE?AU01@H@Z		; glm::mat<4,2,float,2>::operator--
PUBLIC	?length@?$mat@$03$01N$01@glm@@SAHXZ		; glm::mat<4,2,double,2>::length
PUBLIC	??A?$mat@$03$01N$01@glm@@QAEAAU?$vec@$01N$01@1@H@Z ; glm::mat<4,2,double,2>::operator[]
PUBLIC	??A?$mat@$03$01N$01@glm@@QBEABU?$vec@$01N$01@1@H@Z ; glm::mat<4,2,double,2>::operator[]
PUBLIC	??0?$mat@$03$01N$01@glm@@QAE@N@Z		; glm::mat<4,2,double,2>::mat<4,2,double,2>
PUBLIC	??0?$mat@$03$01N$01@glm@@QAE@NNNNNNNN@Z		; glm::mat<4,2,double,2>::mat<4,2,double,2>
PUBLIC	??0?$mat@$03$01N$01@glm@@QAE@ABU?$vec@$01N$01@1@000@Z ; glm::mat<4,2,double,2>::mat<4,2,double,2>
PUBLIC	??0?$mat@$03$01N$01@glm@@QAE@ABU?$mat@$01$01N$01@1@@Z ; glm::mat<4,2,double,2>::mat<4,2,double,2>
PUBLIC	??0?$mat@$03$01N$01@glm@@QAE@ABU?$mat@$02$02N$01@1@@Z ; glm::mat<4,2,double,2>::mat<4,2,double,2>
PUBLIC	??0?$mat@$03$01N$01@glm@@QAE@ABU?$mat@$03$03N$01@1@@Z ; glm::mat<4,2,double,2>::mat<4,2,double,2>
PUBLIC	??0?$mat@$03$01N$01@glm@@QAE@ABU?$mat@$01$02N$01@1@@Z ; glm::mat<4,2,double,2>::mat<4,2,double,2>
PUBLIC	??0?$mat@$03$01N$01@glm@@QAE@ABU?$mat@$02$01N$01@1@@Z ; glm::mat<4,2,double,2>::mat<4,2,double,2>
PUBLIC	??0?$mat@$03$01N$01@glm@@QAE@ABU?$mat@$01$03N$01@1@@Z ; glm::mat<4,2,double,2>::mat<4,2,double,2>
PUBLIC	??0?$mat@$03$01N$01@glm@@QAE@ABU?$mat@$03$02N$01@1@@Z ; glm::mat<4,2,double,2>::mat<4,2,double,2>
PUBLIC	??0?$mat@$03$01N$01@glm@@QAE@ABU?$mat@$02$03N$01@1@@Z ; glm::mat<4,2,double,2>::mat<4,2,double,2>
PUBLIC	??E?$mat@$03$01N$01@glm@@QAEAAU01@XZ		; glm::mat<4,2,double,2>::operator++
PUBLIC	??F?$mat@$03$01N$01@glm@@QAEAAU01@XZ		; glm::mat<4,2,double,2>::operator--
PUBLIC	??E?$mat@$03$01N$01@glm@@QAE?AU01@H@Z		; glm::mat<4,2,double,2>::operator++
PUBLIC	??F?$mat@$03$01N$01@glm@@QAE?AU01@H@Z		; glm::mat<4,2,double,2>::operator--
PUBLIC	?length@?$mat@$03$01M$00@glm@@SAHXZ		; glm::mat<4,2,float,1>::length
PUBLIC	??A?$mat@$03$01M$00@glm@@QAEAAU?$vec@$01M$00@1@H@Z ; glm::mat<4,2,float,1>::operator[]
PUBLIC	??A?$mat@$03$01M$00@glm@@QBEABU?$vec@$01M$00@1@H@Z ; glm::mat<4,2,float,1>::operator[]
PUBLIC	??0?$mat@$03$01M$00@glm@@QAE@M@Z		; glm::mat<4,2,float,1>::mat<4,2,float,1>
PUBLIC	??0?$mat@$03$01M$00@glm@@QAE@MMMMMMMM@Z		; glm::mat<4,2,float,1>::mat<4,2,float,1>
PUBLIC	??0?$mat@$03$01M$00@glm@@QAE@ABU?$vec@$01M$00@1@000@Z ; glm::mat<4,2,float,1>::mat<4,2,float,1>
PUBLIC	??0?$mat@$03$01M$00@glm@@QAE@ABU?$mat@$01$01M$00@1@@Z ; glm::mat<4,2,float,1>::mat<4,2,float,1>
PUBLIC	??0?$mat@$03$01M$00@glm@@QAE@ABU?$mat@$02$02M$00@1@@Z ; glm::mat<4,2,float,1>::mat<4,2,float,1>
PUBLIC	??0?$mat@$03$01M$00@glm@@QAE@ABU?$mat@$03$03M$00@1@@Z ; glm::mat<4,2,float,1>::mat<4,2,float,1>
PUBLIC	??0?$mat@$03$01M$00@glm@@QAE@ABU?$mat@$01$02M$00@1@@Z ; glm::mat<4,2,float,1>::mat<4,2,float,1>
PUBLIC	??0?$mat@$03$01M$00@glm@@QAE@ABU?$mat@$02$01M$00@1@@Z ; glm::mat<4,2,float,1>::mat<4,2,float,1>
PUBLIC	??0?$mat@$03$01M$00@glm@@QAE@ABU?$mat@$01$03M$00@1@@Z ; glm::mat<4,2,float,1>::mat<4,2,float,1>
PUBLIC	??0?$mat@$03$01M$00@glm@@QAE@ABU?$mat@$03$02M$00@1@@Z ; glm::mat<4,2,float,1>::mat<4,2,float,1>
PUBLIC	??0?$mat@$03$01M$00@glm@@QAE@ABU?$mat@$02$03M$00@1@@Z ; glm::mat<4,2,float,1>::mat<4,2,float,1>
PUBLIC	??E?$mat@$03$01M$00@glm@@QAEAAU01@XZ		; glm::mat<4,2,float,1>::operator++
PUBLIC	??F?$mat@$03$01M$00@glm@@QAEAAU01@XZ		; glm::mat<4,2,float,1>::operator--
PUBLIC	??E?$mat@$03$01M$00@glm@@QAE?AU01@H@Z		; glm::mat<4,2,float,1>::operator++
PUBLIC	??F?$mat@$03$01M$00@glm@@QAE?AU01@H@Z		; glm::mat<4,2,float,1>::operator--
PUBLIC	?length@?$mat@$03$01N$00@glm@@SAHXZ		; glm::mat<4,2,double,1>::length
PUBLIC	??A?$mat@$03$01N$00@glm@@QAEAAU?$vec@$01N$00@1@H@Z ; glm::mat<4,2,double,1>::operator[]
PUBLIC	??A?$mat@$03$01N$00@glm@@QBEABU?$vec@$01N$00@1@H@Z ; glm::mat<4,2,double,1>::operator[]
PUBLIC	??0?$mat@$03$01N$00@glm@@QAE@N@Z		; glm::mat<4,2,double,1>::mat<4,2,double,1>
PUBLIC	??0?$mat@$03$01N$00@glm@@QAE@NNNNNNNN@Z		; glm::mat<4,2,double,1>::mat<4,2,double,1>
PUBLIC	??0?$mat@$03$01N$00@glm@@QAE@ABU?$vec@$01N$00@1@000@Z ; glm::mat<4,2,double,1>::mat<4,2,double,1>
PUBLIC	??0?$mat@$03$01N$00@glm@@QAE@ABU?$mat@$01$01N$00@1@@Z ; glm::mat<4,2,double,1>::mat<4,2,double,1>
PUBLIC	??0?$mat@$03$01N$00@glm@@QAE@ABU?$mat@$02$02N$00@1@@Z ; glm::mat<4,2,double,1>::mat<4,2,double,1>
PUBLIC	??0?$mat@$03$01N$00@glm@@QAE@ABU?$mat@$03$03N$00@1@@Z ; glm::mat<4,2,double,1>::mat<4,2,double,1>
PUBLIC	??0?$mat@$03$01N$00@glm@@QAE@ABU?$mat@$01$02N$00@1@@Z ; glm::mat<4,2,double,1>::mat<4,2,double,1>
PUBLIC	??0?$mat@$03$01N$00@glm@@QAE@ABU?$mat@$02$01N$00@1@@Z ; glm::mat<4,2,double,1>::mat<4,2,double,1>
PUBLIC	??0?$mat@$03$01N$00@glm@@QAE@ABU?$mat@$01$03N$00@1@@Z ; glm::mat<4,2,double,1>::mat<4,2,double,1>
PUBLIC	??0?$mat@$03$01N$00@glm@@QAE@ABU?$mat@$03$02N$00@1@@Z ; glm::mat<4,2,double,1>::mat<4,2,double,1>
PUBLIC	??0?$mat@$03$01N$00@glm@@QAE@ABU?$mat@$02$03N$00@1@@Z ; glm::mat<4,2,double,1>::mat<4,2,double,1>
PUBLIC	??E?$mat@$03$01N$00@glm@@QAEAAU01@XZ		; glm::mat<4,2,double,1>::operator++
PUBLIC	??F?$mat@$03$01N$00@glm@@QAEAAU01@XZ		; glm::mat<4,2,double,1>::operator--
PUBLIC	??E?$mat@$03$01N$00@glm@@QAE?AU01@H@Z		; glm::mat<4,2,double,1>::operator++
PUBLIC	??F?$mat@$03$01N$00@glm@@QAE?AU01@H@Z		; glm::mat<4,2,double,1>::operator--
PUBLIC	?length@?$mat@$03$01M$0A@@glm@@SAHXZ		; glm::mat<4,2,float,0>::length
PUBLIC	??A?$mat@$03$01M$0A@@glm@@QAEAAU?$vec@$01M$0A@@1@H@Z ; glm::mat<4,2,float,0>::operator[]
PUBLIC	??A?$mat@$03$01M$0A@@glm@@QBEABU?$vec@$01M$0A@@1@H@Z ; glm::mat<4,2,float,0>::operator[]
PUBLIC	??0?$mat@$03$01M$0A@@glm@@QAE@M@Z		; glm::mat<4,2,float,0>::mat<4,2,float,0>
PUBLIC	??0?$mat@$03$01M$0A@@glm@@QAE@MMMMMMMM@Z	; glm::mat<4,2,float,0>::mat<4,2,float,0>
PUBLIC	??0?$mat@$03$01M$0A@@glm@@QAE@ABU?$vec@$01M$0A@@1@000@Z ; glm::mat<4,2,float,0>::mat<4,2,float,0>
PUBLIC	??0?$mat@$03$01M$0A@@glm@@QAE@ABU?$mat@$01$01M$0A@@1@@Z ; glm::mat<4,2,float,0>::mat<4,2,float,0>
PUBLIC	??0?$mat@$03$01M$0A@@glm@@QAE@ABU?$mat@$02$02M$0A@@1@@Z ; glm::mat<4,2,float,0>::mat<4,2,float,0>
PUBLIC	??0?$mat@$03$01M$0A@@glm@@QAE@ABU?$mat@$03$03M$0A@@1@@Z ; glm::mat<4,2,float,0>::mat<4,2,float,0>
PUBLIC	??0?$mat@$03$01M$0A@@glm@@QAE@ABU?$mat@$01$02M$0A@@1@@Z ; glm::mat<4,2,float,0>::mat<4,2,float,0>
PUBLIC	??0?$mat@$03$01M$0A@@glm@@QAE@ABU?$mat@$02$01M$0A@@1@@Z ; glm::mat<4,2,float,0>::mat<4,2,float,0>
PUBLIC	??0?$mat@$03$01M$0A@@glm@@QAE@ABU?$mat@$01$03M$0A@@1@@Z ; glm::mat<4,2,float,0>::mat<4,2,float,0>
PUBLIC	??0?$mat@$03$01M$0A@@glm@@QAE@ABU?$mat@$03$02M$0A@@1@@Z ; glm::mat<4,2,float,0>::mat<4,2,float,0>
PUBLIC	??0?$mat@$03$01M$0A@@glm@@QAE@ABU?$mat@$02$03M$0A@@1@@Z ; glm::mat<4,2,float,0>::mat<4,2,float,0>
PUBLIC	??E?$mat@$03$01M$0A@@glm@@QAEAAU01@XZ		; glm::mat<4,2,float,0>::operator++
PUBLIC	??F?$mat@$03$01M$0A@@glm@@QAEAAU01@XZ		; glm::mat<4,2,float,0>::operator--
PUBLIC	??E?$mat@$03$01M$0A@@glm@@QAE?AU01@H@Z		; glm::mat<4,2,float,0>::operator++
PUBLIC	??F?$mat@$03$01M$0A@@glm@@QAE?AU01@H@Z		; glm::mat<4,2,float,0>::operator--
PUBLIC	?length@?$mat@$03$01N$0A@@glm@@SAHXZ		; glm::mat<4,2,double,0>::length
PUBLIC	??A?$mat@$03$01N$0A@@glm@@QAEAAU?$vec@$01N$0A@@1@H@Z ; glm::mat<4,2,double,0>::operator[]
PUBLIC	??A?$mat@$03$01N$0A@@glm@@QBEABU?$vec@$01N$0A@@1@H@Z ; glm::mat<4,2,double,0>::operator[]
PUBLIC	??0?$mat@$03$01N$0A@@glm@@QAE@N@Z		; glm::mat<4,2,double,0>::mat<4,2,double,0>
PUBLIC	??0?$mat@$03$01N$0A@@glm@@QAE@NNNNNNNN@Z	; glm::mat<4,2,double,0>::mat<4,2,double,0>
PUBLIC	??0?$mat@$03$01N$0A@@glm@@QAE@ABU?$vec@$01N$0A@@1@000@Z ; glm::mat<4,2,double,0>::mat<4,2,double,0>
PUBLIC	??0?$mat@$03$01N$0A@@glm@@QAE@ABU?$mat@$01$01N$0A@@1@@Z ; glm::mat<4,2,double,0>::mat<4,2,double,0>
PUBLIC	??0?$mat@$03$01N$0A@@glm@@QAE@ABU?$mat@$02$02N$0A@@1@@Z ; glm::mat<4,2,double,0>::mat<4,2,double,0>
PUBLIC	??0?$mat@$03$01N$0A@@glm@@QAE@ABU?$mat@$03$03N$0A@@1@@Z ; glm::mat<4,2,double,0>::mat<4,2,double,0>
PUBLIC	??0?$mat@$03$01N$0A@@glm@@QAE@ABU?$mat@$01$02N$0A@@1@@Z ; glm::mat<4,2,double,0>::mat<4,2,double,0>
PUBLIC	??0?$mat@$03$01N$0A@@glm@@QAE@ABU?$mat@$02$01N$0A@@1@@Z ; glm::mat<4,2,double,0>::mat<4,2,double,0>
PUBLIC	??0?$mat@$03$01N$0A@@glm@@QAE@ABU?$mat@$01$03N$0A@@1@@Z ; glm::mat<4,2,double,0>::mat<4,2,double,0>
PUBLIC	??0?$mat@$03$01N$0A@@glm@@QAE@ABU?$mat@$03$02N$0A@@1@@Z ; glm::mat<4,2,double,0>::mat<4,2,double,0>
PUBLIC	??0?$mat@$03$01N$0A@@glm@@QAE@ABU?$mat@$02$03N$0A@@1@@Z ; glm::mat<4,2,double,0>::mat<4,2,double,0>
PUBLIC	??E?$mat@$03$01N$0A@@glm@@QAEAAU01@XZ		; glm::mat<4,2,double,0>::operator++
PUBLIC	??F?$mat@$03$01N$0A@@glm@@QAEAAU01@XZ		; glm::mat<4,2,double,0>::operator--
PUBLIC	??E?$mat@$03$01N$0A@@glm@@QAE?AU01@H@Z		; glm::mat<4,2,double,0>::operator++
PUBLIC	??F?$mat@$03$01N$0A@@glm@@QAE?AU01@H@Z		; glm::mat<4,2,double,0>::operator--
PUBLIC	?length@?$mat@$03$02M$01@glm@@SAHXZ		; glm::mat<4,3,float,2>::length
PUBLIC	??A?$mat@$03$02M$01@glm@@QAEAAU?$vec@$02M$01@1@H@Z ; glm::mat<4,3,float,2>::operator[]
PUBLIC	??A?$mat@$03$02M$01@glm@@QBEABU?$vec@$02M$01@1@H@Z ; glm::mat<4,3,float,2>::operator[]
PUBLIC	??0?$mat@$03$02M$01@glm@@QAE@ABM@Z		; glm::mat<4,3,float,2>::mat<4,3,float,2>
PUBLIC	??0?$mat@$03$02M$01@glm@@QAE@ABM00000000000@Z	; glm::mat<4,3,float,2>::mat<4,3,float,2>
PUBLIC	??0?$mat@$03$02M$01@glm@@QAE@ABU?$vec@$02M$01@1@000@Z ; glm::mat<4,3,float,2>::mat<4,3,float,2>
PUBLIC	??0?$mat@$03$02M$01@glm@@QAE@ABU?$mat@$01$01M$01@1@@Z ; glm::mat<4,3,float,2>::mat<4,3,float,2>
PUBLIC	??0?$mat@$03$02M$01@glm@@QAE@ABU?$mat@$02$02M$01@1@@Z ; glm::mat<4,3,float,2>::mat<4,3,float,2>
PUBLIC	??0?$mat@$03$02M$01@glm@@QAE@ABU?$mat@$03$03M$01@1@@Z ; glm::mat<4,3,float,2>::mat<4,3,float,2>
PUBLIC	??0?$mat@$03$02M$01@glm@@QAE@ABU?$mat@$01$02M$01@1@@Z ; glm::mat<4,3,float,2>::mat<4,3,float,2>
PUBLIC	??0?$mat@$03$02M$01@glm@@QAE@ABU?$mat@$02$01M$01@1@@Z ; glm::mat<4,3,float,2>::mat<4,3,float,2>
PUBLIC	??0?$mat@$03$02M$01@glm@@QAE@ABU?$mat@$01$03M$01@1@@Z ; glm::mat<4,3,float,2>::mat<4,3,float,2>
PUBLIC	??0?$mat@$03$02M$01@glm@@QAE@ABU?$mat@$03$01M$01@1@@Z ; glm::mat<4,3,float,2>::mat<4,3,float,2>
PUBLIC	??0?$mat@$03$02M$01@glm@@QAE@ABU?$mat@$02$03M$01@1@@Z ; glm::mat<4,3,float,2>::mat<4,3,float,2>
PUBLIC	??E?$mat@$03$02M$01@glm@@QAEAAU01@XZ		; glm::mat<4,3,float,2>::operator++
PUBLIC	??F?$mat@$03$02M$01@glm@@QAEAAU01@XZ		; glm::mat<4,3,float,2>::operator--
PUBLIC	??E?$mat@$03$02M$01@glm@@QAE?AU01@H@Z		; glm::mat<4,3,float,2>::operator++
PUBLIC	??F?$mat@$03$02M$01@glm@@QAE?AU01@H@Z		; glm::mat<4,3,float,2>::operator--
PUBLIC	?length@?$mat@$03$02N$01@glm@@SAHXZ		; glm::mat<4,3,double,2>::length
PUBLIC	??A?$mat@$03$02N$01@glm@@QAEAAU?$vec@$02N$01@1@H@Z ; glm::mat<4,3,double,2>::operator[]
PUBLIC	??A?$mat@$03$02N$01@glm@@QBEABU?$vec@$02N$01@1@H@Z ; glm::mat<4,3,double,2>::operator[]
PUBLIC	??0?$mat@$03$02N$01@glm@@QAE@ABN@Z		; glm::mat<4,3,double,2>::mat<4,3,double,2>
PUBLIC	??0?$mat@$03$02N$01@glm@@QAE@ABN00000000000@Z	; glm::mat<4,3,double,2>::mat<4,3,double,2>
PUBLIC	??0?$mat@$03$02N$01@glm@@QAE@ABU?$vec@$02N$01@1@000@Z ; glm::mat<4,3,double,2>::mat<4,3,double,2>
PUBLIC	??0?$mat@$03$02N$01@glm@@QAE@ABU?$mat@$01$01N$01@1@@Z ; glm::mat<4,3,double,2>::mat<4,3,double,2>
PUBLIC	??0?$mat@$03$02N$01@glm@@QAE@ABU?$mat@$02$02N$01@1@@Z ; glm::mat<4,3,double,2>::mat<4,3,double,2>
PUBLIC	??0?$mat@$03$02N$01@glm@@QAE@ABU?$mat@$03$03N$01@1@@Z ; glm::mat<4,3,double,2>::mat<4,3,double,2>
PUBLIC	??0?$mat@$03$02N$01@glm@@QAE@ABU?$mat@$01$02N$01@1@@Z ; glm::mat<4,3,double,2>::mat<4,3,double,2>
PUBLIC	??0?$mat@$03$02N$01@glm@@QAE@ABU?$mat@$02$01N$01@1@@Z ; glm::mat<4,3,double,2>::mat<4,3,double,2>
PUBLIC	??0?$mat@$03$02N$01@glm@@QAE@ABU?$mat@$01$03N$01@1@@Z ; glm::mat<4,3,double,2>::mat<4,3,double,2>
PUBLIC	??0?$mat@$03$02N$01@glm@@QAE@ABU?$mat@$03$01N$01@1@@Z ; glm::mat<4,3,double,2>::mat<4,3,double,2>
PUBLIC	??0?$mat@$03$02N$01@glm@@QAE@ABU?$mat@$02$03N$01@1@@Z ; glm::mat<4,3,double,2>::mat<4,3,double,2>
PUBLIC	??E?$mat@$03$02N$01@glm@@QAEAAU01@XZ		; glm::mat<4,3,double,2>::operator++
PUBLIC	??F?$mat@$03$02N$01@glm@@QAEAAU01@XZ		; glm::mat<4,3,double,2>::operator--
PUBLIC	??E?$mat@$03$02N$01@glm@@QAE?AU01@H@Z		; glm::mat<4,3,double,2>::operator++
PUBLIC	??F?$mat@$03$02N$01@glm@@QAE?AU01@H@Z		; glm::mat<4,3,double,2>::operator--
PUBLIC	?length@?$mat@$03$02M$00@glm@@SAHXZ		; glm::mat<4,3,float,1>::length
PUBLIC	??A?$mat@$03$02M$00@glm@@QAEAAU?$vec@$02M$00@1@H@Z ; glm::mat<4,3,float,1>::operator[]
PUBLIC	??A?$mat@$03$02M$00@glm@@QBEABU?$vec@$02M$00@1@H@Z ; glm::mat<4,3,float,1>::operator[]
PUBLIC	??0?$mat@$03$02M$00@glm@@QAE@ABM@Z		; glm::mat<4,3,float,1>::mat<4,3,float,1>
PUBLIC	??0?$mat@$03$02M$00@glm@@QAE@ABM00000000000@Z	; glm::mat<4,3,float,1>::mat<4,3,float,1>
PUBLIC	??0?$mat@$03$02M$00@glm@@QAE@ABU?$vec@$02M$00@1@000@Z ; glm::mat<4,3,float,1>::mat<4,3,float,1>
PUBLIC	??0?$mat@$03$02M$00@glm@@QAE@ABU?$mat@$01$01M$00@1@@Z ; glm::mat<4,3,float,1>::mat<4,3,float,1>
PUBLIC	??0?$mat@$03$02M$00@glm@@QAE@ABU?$mat@$02$02M$00@1@@Z ; glm::mat<4,3,float,1>::mat<4,3,float,1>
PUBLIC	??0?$mat@$03$02M$00@glm@@QAE@ABU?$mat@$03$03M$00@1@@Z ; glm::mat<4,3,float,1>::mat<4,3,float,1>
PUBLIC	??0?$mat@$03$02M$00@glm@@QAE@ABU?$mat@$01$02M$00@1@@Z ; glm::mat<4,3,float,1>::mat<4,3,float,1>
PUBLIC	??0?$mat@$03$02M$00@glm@@QAE@ABU?$mat@$02$01M$00@1@@Z ; glm::mat<4,3,float,1>::mat<4,3,float,1>
PUBLIC	??0?$mat@$03$02M$00@glm@@QAE@ABU?$mat@$01$03M$00@1@@Z ; glm::mat<4,3,float,1>::mat<4,3,float,1>
PUBLIC	??0?$mat@$03$02M$00@glm@@QAE@ABU?$mat@$03$01M$00@1@@Z ; glm::mat<4,3,float,1>::mat<4,3,float,1>
PUBLIC	??0?$mat@$03$02M$00@glm@@QAE@ABU?$mat@$02$03M$00@1@@Z ; glm::mat<4,3,float,1>::mat<4,3,float,1>
PUBLIC	??E?$mat@$03$02M$00@glm@@QAEAAU01@XZ		; glm::mat<4,3,float,1>::operator++
PUBLIC	??F?$mat@$03$02M$00@glm@@QAEAAU01@XZ		; glm::mat<4,3,float,1>::operator--
PUBLIC	??E?$mat@$03$02M$00@glm@@QAE?AU01@H@Z		; glm::mat<4,3,float,1>::operator++
PUBLIC	??F?$mat@$03$02M$00@glm@@QAE?AU01@H@Z		; glm::mat<4,3,float,1>::operator--
PUBLIC	?length@?$mat@$03$02N$00@glm@@SAHXZ		; glm::mat<4,3,double,1>::length
PUBLIC	??A?$mat@$03$02N$00@glm@@QAEAAU?$vec@$02N$00@1@H@Z ; glm::mat<4,3,double,1>::operator[]
PUBLIC	??A?$mat@$03$02N$00@glm@@QBEABU?$vec@$02N$00@1@H@Z ; glm::mat<4,3,double,1>::operator[]
PUBLIC	??0?$mat@$03$02N$00@glm@@QAE@ABN@Z		; glm::mat<4,3,double,1>::mat<4,3,double,1>
PUBLIC	??0?$mat@$03$02N$00@glm@@QAE@ABN00000000000@Z	; glm::mat<4,3,double,1>::mat<4,3,double,1>
PUBLIC	??0?$mat@$03$02N$00@glm@@QAE@ABU?$vec@$02N$00@1@000@Z ; glm::mat<4,3,double,1>::mat<4,3,double,1>
PUBLIC	??0?$mat@$03$02N$00@glm@@QAE@ABU?$mat@$01$01N$00@1@@Z ; glm::mat<4,3,double,1>::mat<4,3,double,1>
PUBLIC	??0?$mat@$03$02N$00@glm@@QAE@ABU?$mat@$02$02N$00@1@@Z ; glm::mat<4,3,double,1>::mat<4,3,double,1>
PUBLIC	??0?$mat@$03$02N$00@glm@@QAE@ABU?$mat@$03$03N$00@1@@Z ; glm::mat<4,3,double,1>::mat<4,3,double,1>
PUBLIC	??0?$mat@$03$02N$00@glm@@QAE@ABU?$mat@$01$02N$00@1@@Z ; glm::mat<4,3,double,1>::mat<4,3,double,1>
PUBLIC	??0?$mat@$03$02N$00@glm@@QAE@ABU?$mat@$02$01N$00@1@@Z ; glm::mat<4,3,double,1>::mat<4,3,double,1>
PUBLIC	??0?$mat@$03$02N$00@glm@@QAE@ABU?$mat@$01$03N$00@1@@Z ; glm::mat<4,3,double,1>::mat<4,3,double,1>
PUBLIC	??0?$mat@$03$02N$00@glm@@QAE@ABU?$mat@$03$01N$00@1@@Z ; glm::mat<4,3,double,1>::mat<4,3,double,1>
PUBLIC	??0?$mat@$03$02N$00@glm@@QAE@ABU?$mat@$02$03N$00@1@@Z ; glm::mat<4,3,double,1>::mat<4,3,double,1>
PUBLIC	??E?$mat@$03$02N$00@glm@@QAEAAU01@XZ		; glm::mat<4,3,double,1>::operator++
PUBLIC	??F?$mat@$03$02N$00@glm@@QAEAAU01@XZ		; glm::mat<4,3,double,1>::operator--
PUBLIC	??E?$mat@$03$02N$00@glm@@QAE?AU01@H@Z		; glm::mat<4,3,double,1>::operator++
PUBLIC	??F?$mat@$03$02N$00@glm@@QAE?AU01@H@Z		; glm::mat<4,3,double,1>::operator--
PUBLIC	?length@?$mat@$03$02M$0A@@glm@@SAHXZ		; glm::mat<4,3,float,0>::length
PUBLIC	??A?$mat@$03$02M$0A@@glm@@QAEAAU?$vec@$02M$0A@@1@H@Z ; glm::mat<4,3,float,0>::operator[]
PUBLIC	??A?$mat@$03$02M$0A@@glm@@QBEABU?$vec@$02M$0A@@1@H@Z ; glm::mat<4,3,float,0>::operator[]
PUBLIC	??0?$mat@$03$02M$0A@@glm@@QAE@ABM@Z		; glm::mat<4,3,float,0>::mat<4,3,float,0>
PUBLIC	??0?$mat@$03$02M$0A@@glm@@QAE@ABM00000000000@Z	; glm::mat<4,3,float,0>::mat<4,3,float,0>
PUBLIC	??0?$mat@$03$02M$0A@@glm@@QAE@ABU?$vec@$02M$0A@@1@000@Z ; glm::mat<4,3,float,0>::mat<4,3,float,0>
PUBLIC	??0?$mat@$03$02M$0A@@glm@@QAE@ABU?$mat@$01$01M$0A@@1@@Z ; glm::mat<4,3,float,0>::mat<4,3,float,0>
PUBLIC	??0?$mat@$03$02M$0A@@glm@@QAE@ABU?$mat@$02$02M$0A@@1@@Z ; glm::mat<4,3,float,0>::mat<4,3,float,0>
PUBLIC	??0?$mat@$03$02M$0A@@glm@@QAE@ABU?$mat@$03$03M$0A@@1@@Z ; glm::mat<4,3,float,0>::mat<4,3,float,0>
PUBLIC	??0?$mat@$03$02M$0A@@glm@@QAE@ABU?$mat@$01$02M$0A@@1@@Z ; glm::mat<4,3,float,0>::mat<4,3,float,0>
PUBLIC	??0?$mat@$03$02M$0A@@glm@@QAE@ABU?$mat@$02$01M$0A@@1@@Z ; glm::mat<4,3,float,0>::mat<4,3,float,0>
PUBLIC	??0?$mat@$03$02M$0A@@glm@@QAE@ABU?$mat@$01$03M$0A@@1@@Z ; glm::mat<4,3,float,0>::mat<4,3,float,0>
PUBLIC	??0?$mat@$03$02M$0A@@glm@@QAE@ABU?$mat@$03$01M$0A@@1@@Z ; glm::mat<4,3,float,0>::mat<4,3,float,0>
PUBLIC	??0?$mat@$03$02M$0A@@glm@@QAE@ABU?$mat@$02$03M$0A@@1@@Z ; glm::mat<4,3,float,0>::mat<4,3,float,0>
PUBLIC	??E?$mat@$03$02M$0A@@glm@@QAEAAU01@XZ		; glm::mat<4,3,float,0>::operator++
PUBLIC	??F?$mat@$03$02M$0A@@glm@@QAEAAU01@XZ		; glm::mat<4,3,float,0>::operator--
PUBLIC	??E?$mat@$03$02M$0A@@glm@@QAE?AU01@H@Z		; glm::mat<4,3,float,0>::operator++
PUBLIC	??F?$mat@$03$02M$0A@@glm@@QAE?AU01@H@Z		; glm::mat<4,3,float,0>::operator--
PUBLIC	?length@?$mat@$03$02N$0A@@glm@@SAHXZ		; glm::mat<4,3,double,0>::length
PUBLIC	??A?$mat@$03$02N$0A@@glm@@QAEAAU?$vec@$02N$0A@@1@H@Z ; glm::mat<4,3,double,0>::operator[]
PUBLIC	??A?$mat@$03$02N$0A@@glm@@QBEABU?$vec@$02N$0A@@1@H@Z ; glm::mat<4,3,double,0>::operator[]
PUBLIC	??0?$mat@$03$02N$0A@@glm@@QAE@ABN@Z		; glm::mat<4,3,double,0>::mat<4,3,double,0>
PUBLIC	??0?$mat@$03$02N$0A@@glm@@QAE@ABN00000000000@Z	; glm::mat<4,3,double,0>::mat<4,3,double,0>
PUBLIC	??0?$mat@$03$02N$0A@@glm@@QAE@ABU?$vec@$02N$0A@@1@000@Z ; glm::mat<4,3,double,0>::mat<4,3,double,0>
PUBLIC	??0?$mat@$03$02N$0A@@glm@@QAE@ABU?$mat@$01$01N$0A@@1@@Z ; glm::mat<4,3,double,0>::mat<4,3,double,0>
PUBLIC	??0?$mat@$03$02N$0A@@glm@@QAE@ABU?$mat@$02$02N$0A@@1@@Z ; glm::mat<4,3,double,0>::mat<4,3,double,0>
PUBLIC	??0?$mat@$03$02N$0A@@glm@@QAE@ABU?$mat@$03$03N$0A@@1@@Z ; glm::mat<4,3,double,0>::mat<4,3,double,0>
PUBLIC	??0?$mat@$03$02N$0A@@glm@@QAE@ABU?$mat@$01$02N$0A@@1@@Z ; glm::mat<4,3,double,0>::mat<4,3,double,0>
PUBLIC	??0?$mat@$03$02N$0A@@glm@@QAE@ABU?$mat@$02$01N$0A@@1@@Z ; glm::mat<4,3,double,0>::mat<4,3,double,0>
PUBLIC	??0?$mat@$03$02N$0A@@glm@@QAE@ABU?$mat@$01$03N$0A@@1@@Z ; glm::mat<4,3,double,0>::mat<4,3,double,0>
PUBLIC	??0?$mat@$03$02N$0A@@glm@@QAE@ABU?$mat@$03$01N$0A@@1@@Z ; glm::mat<4,3,double,0>::mat<4,3,double,0>
PUBLIC	??0?$mat@$03$02N$0A@@glm@@QAE@ABU?$mat@$02$03N$0A@@1@@Z ; glm::mat<4,3,double,0>::mat<4,3,double,0>
PUBLIC	??E?$mat@$03$02N$0A@@glm@@QAEAAU01@XZ		; glm::mat<4,3,double,0>::operator++
PUBLIC	??F?$mat@$03$02N$0A@@glm@@QAEAAU01@XZ		; glm::mat<4,3,double,0>::operator--
PUBLIC	??E?$mat@$03$02N$0A@@glm@@QAE?AU01@H@Z		; glm::mat<4,3,double,0>::operator++
PUBLIC	??F?$mat@$03$02N$0A@@glm@@QAE?AU01@H@Z		; glm::mat<4,3,double,0>::operator--
PUBLIC	?length@?$mat@$03$03M$01@glm@@SAHXZ		; glm::mat<4,4,float,2>::length
PUBLIC	??A?$mat@$03$03M$01@glm@@QAEAAU?$vec@$03M$01@1@H@Z ; glm::mat<4,4,float,2>::operator[]
PUBLIC	??A?$mat@$03$03M$01@glm@@QBEABU?$vec@$03M$01@1@H@Z ; glm::mat<4,4,float,2>::operator[]
PUBLIC	??0?$mat@$03$03M$01@glm@@QAE@ABM@Z		; glm::mat<4,4,float,2>::mat<4,4,float,2>
PUBLIC	??0?$mat@$03$03M$01@glm@@QAE@ABM000000000000000@Z ; glm::mat<4,4,float,2>::mat<4,4,float,2>
PUBLIC	??0?$mat@$03$03M$01@glm@@QAE@ABU?$vec@$03M$01@1@000@Z ; glm::mat<4,4,float,2>::mat<4,4,float,2>
PUBLIC	??0?$mat@$03$03M$01@glm@@QAE@ABU?$mat@$01$01M$01@1@@Z ; glm::mat<4,4,float,2>::mat<4,4,float,2>
PUBLIC	??0?$mat@$03$03M$01@glm@@QAE@ABU?$mat@$02$02M$01@1@@Z ; glm::mat<4,4,float,2>::mat<4,4,float,2>
PUBLIC	??0?$mat@$03$03M$01@glm@@QAE@ABU?$mat@$01$02M$01@1@@Z ; glm::mat<4,4,float,2>::mat<4,4,float,2>
PUBLIC	??0?$mat@$03$03M$01@glm@@QAE@ABU?$mat@$02$01M$01@1@@Z ; glm::mat<4,4,float,2>::mat<4,4,float,2>
PUBLIC	??0?$mat@$03$03M$01@glm@@QAE@ABU?$mat@$01$03M$01@1@@Z ; glm::mat<4,4,float,2>::mat<4,4,float,2>
PUBLIC	??0?$mat@$03$03M$01@glm@@QAE@ABU?$mat@$03$01M$01@1@@Z ; glm::mat<4,4,float,2>::mat<4,4,float,2>
PUBLIC	??0?$mat@$03$03M$01@glm@@QAE@ABU?$mat@$02$03M$01@1@@Z ; glm::mat<4,4,float,2>::mat<4,4,float,2>
PUBLIC	??0?$mat@$03$03M$01@glm@@QAE@ABU?$mat@$03$02M$01@1@@Z ; glm::mat<4,4,float,2>::mat<4,4,float,2>
PUBLIC	??E?$mat@$03$03M$01@glm@@QAEAAU01@XZ		; glm::mat<4,4,float,2>::operator++
PUBLIC	??F?$mat@$03$03M$01@glm@@QAEAAU01@XZ		; glm::mat<4,4,float,2>::operator--
PUBLIC	??E?$mat@$03$03M$01@glm@@QAE?AU01@H@Z		; glm::mat<4,4,float,2>::operator++
PUBLIC	??F?$mat@$03$03M$01@glm@@QAE?AU01@H@Z		; glm::mat<4,4,float,2>::operator--
PUBLIC	?length@?$mat@$03$03N$01@glm@@SAHXZ		; glm::mat<4,4,double,2>::length
PUBLIC	??A?$mat@$03$03N$01@glm@@QAEAAU?$vec@$03N$01@1@H@Z ; glm::mat<4,4,double,2>::operator[]
PUBLIC	??A?$mat@$03$03N$01@glm@@QBEABU?$vec@$03N$01@1@H@Z ; glm::mat<4,4,double,2>::operator[]
PUBLIC	??0?$mat@$03$03N$01@glm@@QAE@ABN@Z		; glm::mat<4,4,double,2>::mat<4,4,double,2>
PUBLIC	??0?$mat@$03$03N$01@glm@@QAE@ABN000000000000000@Z ; glm::mat<4,4,double,2>::mat<4,4,double,2>
PUBLIC	??0?$mat@$03$03N$01@glm@@QAE@ABU?$vec@$03N$01@1@000@Z ; glm::mat<4,4,double,2>::mat<4,4,double,2>
PUBLIC	??0?$mat@$03$03N$01@glm@@QAE@ABU?$mat@$01$01N$01@1@@Z ; glm::mat<4,4,double,2>::mat<4,4,double,2>
PUBLIC	??0?$mat@$03$03N$01@glm@@QAE@ABU?$mat@$02$02N$01@1@@Z ; glm::mat<4,4,double,2>::mat<4,4,double,2>
PUBLIC	??0?$mat@$03$03N$01@glm@@QAE@ABU?$mat@$01$02N$01@1@@Z ; glm::mat<4,4,double,2>::mat<4,4,double,2>
PUBLIC	??0?$mat@$03$03N$01@glm@@QAE@ABU?$mat@$02$01N$01@1@@Z ; glm::mat<4,4,double,2>::mat<4,4,double,2>
PUBLIC	??0?$mat@$03$03N$01@glm@@QAE@ABU?$mat@$01$03N$01@1@@Z ; glm::mat<4,4,double,2>::mat<4,4,double,2>
PUBLIC	??0?$mat@$03$03N$01@glm@@QAE@ABU?$mat@$03$01N$01@1@@Z ; glm::mat<4,4,double,2>::mat<4,4,double,2>
PUBLIC	??0?$mat@$03$03N$01@glm@@QAE@ABU?$mat@$02$03N$01@1@@Z ; glm::mat<4,4,double,2>::mat<4,4,double,2>
PUBLIC	??0?$mat@$03$03N$01@glm@@QAE@ABU?$mat@$03$02N$01@1@@Z ; glm::mat<4,4,double,2>::mat<4,4,double,2>
PUBLIC	??E?$mat@$03$03N$01@glm@@QAEAAU01@XZ		; glm::mat<4,4,double,2>::operator++
PUBLIC	??F?$mat@$03$03N$01@glm@@QAEAAU01@XZ		; glm::mat<4,4,double,2>::operator--
PUBLIC	??E?$mat@$03$03N$01@glm@@QAE?AU01@H@Z		; glm::mat<4,4,double,2>::operator++
PUBLIC	??F?$mat@$03$03N$01@glm@@QAE?AU01@H@Z		; glm::mat<4,4,double,2>::operator--
PUBLIC	?length@?$mat@$03$03M$00@glm@@SAHXZ		; glm::mat<4,4,float,1>::length
PUBLIC	??A?$mat@$03$03M$00@glm@@QAEAAU?$vec@$03M$00@1@H@Z ; glm::mat<4,4,float,1>::operator[]
PUBLIC	??A?$mat@$03$03M$00@glm@@QBEABU?$vec@$03M$00@1@H@Z ; glm::mat<4,4,float,1>::operator[]
PUBLIC	??0?$mat@$03$03M$00@glm@@QAE@ABM@Z		; glm::mat<4,4,float,1>::mat<4,4,float,1>
PUBLIC	??0?$mat@$03$03M$00@glm@@QAE@ABM000000000000000@Z ; glm::mat<4,4,float,1>::mat<4,4,float,1>
PUBLIC	??0?$mat@$03$03M$00@glm@@QAE@ABU?$vec@$03M$00@1@000@Z ; glm::mat<4,4,float,1>::mat<4,4,float,1>
PUBLIC	??0?$mat@$03$03M$00@glm@@QAE@ABU?$mat@$01$01M$00@1@@Z ; glm::mat<4,4,float,1>::mat<4,4,float,1>
PUBLIC	??0?$mat@$03$03M$00@glm@@QAE@ABU?$mat@$02$02M$00@1@@Z ; glm::mat<4,4,float,1>::mat<4,4,float,1>
PUBLIC	??0?$mat@$03$03M$00@glm@@QAE@ABU?$mat@$01$02M$00@1@@Z ; glm::mat<4,4,float,1>::mat<4,4,float,1>
PUBLIC	??0?$mat@$03$03M$00@glm@@QAE@ABU?$mat@$02$01M$00@1@@Z ; glm::mat<4,4,float,1>::mat<4,4,float,1>
PUBLIC	??0?$mat@$03$03M$00@glm@@QAE@ABU?$mat@$01$03M$00@1@@Z ; glm::mat<4,4,float,1>::mat<4,4,float,1>
PUBLIC	??0?$mat@$03$03M$00@glm@@QAE@ABU?$mat@$03$01M$00@1@@Z ; glm::mat<4,4,float,1>::mat<4,4,float,1>
PUBLIC	??0?$mat@$03$03M$00@glm@@QAE@ABU?$mat@$02$03M$00@1@@Z ; glm::mat<4,4,float,1>::mat<4,4,float,1>
PUBLIC	??0?$mat@$03$03M$00@glm@@QAE@ABU?$mat@$03$02M$00@1@@Z ; glm::mat<4,4,float,1>::mat<4,4,float,1>
PUBLIC	??E?$mat@$03$03M$00@glm@@QAEAAU01@XZ		; glm::mat<4,4,float,1>::operator++
PUBLIC	??F?$mat@$03$03M$00@glm@@QAEAAU01@XZ		; glm::mat<4,4,float,1>::operator--
PUBLIC	??E?$mat@$03$03M$00@glm@@QAE?AU01@H@Z		; glm::mat<4,4,float,1>::operator++
PUBLIC	??F?$mat@$03$03M$00@glm@@QAE?AU01@H@Z		; glm::mat<4,4,float,1>::operator--
PUBLIC	?length@?$mat@$03$03N$00@glm@@SAHXZ		; glm::mat<4,4,double,1>::length
PUBLIC	??A?$mat@$03$03N$00@glm@@QAEAAU?$vec@$03N$00@1@H@Z ; glm::mat<4,4,double,1>::operator[]
PUBLIC	??A?$mat@$03$03N$00@glm@@QBEABU?$vec@$03N$00@1@H@Z ; glm::mat<4,4,double,1>::operator[]
PUBLIC	??0?$mat@$03$03N$00@glm@@QAE@ABN@Z		; glm::mat<4,4,double,1>::mat<4,4,double,1>
PUBLIC	??0?$mat@$03$03N$00@glm@@QAE@ABN000000000000000@Z ; glm::mat<4,4,double,1>::mat<4,4,double,1>
PUBLIC	??0?$mat@$03$03N$00@glm@@QAE@ABU?$vec@$03N$00@1@000@Z ; glm::mat<4,4,double,1>::mat<4,4,double,1>
PUBLIC	??0?$mat@$03$03N$00@glm@@QAE@ABU?$mat@$01$01N$00@1@@Z ; glm::mat<4,4,double,1>::mat<4,4,double,1>
PUBLIC	??0?$mat@$03$03N$00@glm@@QAE@ABU?$mat@$02$02N$00@1@@Z ; glm::mat<4,4,double,1>::mat<4,4,double,1>
PUBLIC	??0?$mat@$03$03N$00@glm@@QAE@ABU?$mat@$01$02N$00@1@@Z ; glm::mat<4,4,double,1>::mat<4,4,double,1>
PUBLIC	??0?$mat@$03$03N$00@glm@@QAE@ABU?$mat@$02$01N$00@1@@Z ; glm::mat<4,4,double,1>::mat<4,4,double,1>
PUBLIC	??0?$mat@$03$03N$00@glm@@QAE@ABU?$mat@$01$03N$00@1@@Z ; glm::mat<4,4,double,1>::mat<4,4,double,1>
PUBLIC	??0?$mat@$03$03N$00@glm@@QAE@ABU?$mat@$03$01N$00@1@@Z ; glm::mat<4,4,double,1>::mat<4,4,double,1>
PUBLIC	??0?$mat@$03$03N$00@glm@@QAE@ABU?$mat@$02$03N$00@1@@Z ; glm::mat<4,4,double,1>::mat<4,4,double,1>
PUBLIC	??0?$mat@$03$03N$00@glm@@QAE@ABU?$mat@$03$02N$00@1@@Z ; glm::mat<4,4,double,1>::mat<4,4,double,1>
PUBLIC	??E?$mat@$03$03N$00@glm@@QAEAAU01@XZ		; glm::mat<4,4,double,1>::operator++
PUBLIC	??F?$mat@$03$03N$00@glm@@QAEAAU01@XZ		; glm::mat<4,4,double,1>::operator--
PUBLIC	??E?$mat@$03$03N$00@glm@@QAE?AU01@H@Z		; glm::mat<4,4,double,1>::operator++
PUBLIC	??F?$mat@$03$03N$00@glm@@QAE?AU01@H@Z		; glm::mat<4,4,double,1>::operator--
PUBLIC	?length@?$mat@$03$03M$0A@@glm@@SAHXZ		; glm::mat<4,4,float,0>::length
PUBLIC	??A?$mat@$03$03M$0A@@glm@@QAEAAU?$vec@$03M$0A@@1@H@Z ; glm::mat<4,4,float,0>::operator[]
PUBLIC	??A?$mat@$03$03M$0A@@glm@@QBEABU?$vec@$03M$0A@@1@H@Z ; glm::mat<4,4,float,0>::operator[]
PUBLIC	??0?$mat@$03$03M$0A@@glm@@QAE@ABM@Z		; glm::mat<4,4,float,0>::mat<4,4,float,0>
PUBLIC	??0?$mat@$03$03M$0A@@glm@@QAE@ABM000000000000000@Z ; glm::mat<4,4,float,0>::mat<4,4,float,0>
PUBLIC	??0?$mat@$03$03M$0A@@glm@@QAE@ABU?$vec@$03M$0A@@1@000@Z ; glm::mat<4,4,float,0>::mat<4,4,float,0>
PUBLIC	??0?$mat@$03$03M$0A@@glm@@QAE@ABU?$mat@$01$01M$0A@@1@@Z ; glm::mat<4,4,float,0>::mat<4,4,float,0>
PUBLIC	??0?$mat@$03$03M$0A@@glm@@QAE@ABU?$mat@$02$02M$0A@@1@@Z ; glm::mat<4,4,float,0>::mat<4,4,float,0>
PUBLIC	??0?$mat@$03$03M$0A@@glm@@QAE@ABU?$mat@$01$02M$0A@@1@@Z ; glm::mat<4,4,float,0>::mat<4,4,float,0>
PUBLIC	??0?$mat@$03$03M$0A@@glm@@QAE@ABU?$mat@$02$01M$0A@@1@@Z ; glm::mat<4,4,float,0>::mat<4,4,float,0>
PUBLIC	??0?$mat@$03$03M$0A@@glm@@QAE@ABU?$mat@$01$03M$0A@@1@@Z ; glm::mat<4,4,float,0>::mat<4,4,float,0>
PUBLIC	??0?$mat@$03$03M$0A@@glm@@QAE@ABU?$mat@$03$01M$0A@@1@@Z ; glm::mat<4,4,float,0>::mat<4,4,float,0>
PUBLIC	??0?$mat@$03$03M$0A@@glm@@QAE@ABU?$mat@$02$03M$0A@@1@@Z ; glm::mat<4,4,float,0>::mat<4,4,float,0>
PUBLIC	??0?$mat@$03$03M$0A@@glm@@QAE@ABU?$mat@$03$02M$0A@@1@@Z ; glm::mat<4,4,float,0>::mat<4,4,float,0>
PUBLIC	??E?$mat@$03$03M$0A@@glm@@QAEAAU01@XZ		; glm::mat<4,4,float,0>::operator++
PUBLIC	??F?$mat@$03$03M$0A@@glm@@QAEAAU01@XZ		; glm::mat<4,4,float,0>::operator--
PUBLIC	??E?$mat@$03$03M$0A@@glm@@QAE?AU01@H@Z		; glm::mat<4,4,float,0>::operator++
PUBLIC	??F?$mat@$03$03M$0A@@glm@@QAE?AU01@H@Z		; glm::mat<4,4,float,0>::operator--
PUBLIC	?length@?$mat@$03$03N$0A@@glm@@SAHXZ		; glm::mat<4,4,double,0>::length
PUBLIC	??A?$mat@$03$03N$0A@@glm@@QAEAAU?$vec@$03N$0A@@1@H@Z ; glm::mat<4,4,double,0>::operator[]
PUBLIC	??A?$mat@$03$03N$0A@@glm@@QBEABU?$vec@$03N$0A@@1@H@Z ; glm::mat<4,4,double,0>::operator[]
PUBLIC	??0?$mat@$03$03N$0A@@glm@@QAE@ABN@Z		; glm::mat<4,4,double,0>::mat<4,4,double,0>
PUBLIC	??0?$mat@$03$03N$0A@@glm@@QAE@ABN000000000000000@Z ; glm::mat<4,4,double,0>::mat<4,4,double,0>
PUBLIC	??0?$mat@$03$03N$0A@@glm@@QAE@ABU?$vec@$03N$0A@@1@000@Z ; glm::mat<4,4,double,0>::mat<4,4,double,0>
PUBLIC	??0?$mat@$03$03N$0A@@glm@@QAE@ABU?$mat@$01$01N$0A@@1@@Z ; glm::mat<4,4,double,0>::mat<4,4,double,0>
PUBLIC	??0?$mat@$03$03N$0A@@glm@@QAE@ABU?$mat@$02$02N$0A@@1@@Z ; glm::mat<4,4,double,0>::mat<4,4,double,0>
PUBLIC	??0?$mat@$03$03N$0A@@glm@@QAE@ABU?$mat@$01$02N$0A@@1@@Z ; glm::mat<4,4,double,0>::mat<4,4,double,0>
PUBLIC	??0?$mat@$03$03N$0A@@glm@@QAE@ABU?$mat@$02$01N$0A@@1@@Z ; glm::mat<4,4,double,0>::mat<4,4,double,0>
PUBLIC	??0?$mat@$03$03N$0A@@glm@@QAE@ABU?$mat@$01$03N$0A@@1@@Z ; glm::mat<4,4,double,0>::mat<4,4,double,0>
PUBLIC	??0?$mat@$03$03N$0A@@glm@@QAE@ABU?$mat@$03$01N$0A@@1@@Z ; glm::mat<4,4,double,0>::mat<4,4,double,0>
PUBLIC	??0?$mat@$03$03N$0A@@glm@@QAE@ABU?$mat@$02$03N$0A@@1@@Z ; glm::mat<4,4,double,0>::mat<4,4,double,0>
PUBLIC	??0?$mat@$03$03N$0A@@glm@@QAE@ABU?$mat@$03$02N$0A@@1@@Z ; glm::mat<4,4,double,0>::mat<4,4,double,0>
PUBLIC	??E?$mat@$03$03N$0A@@glm@@QAEAAU01@XZ		; glm::mat<4,4,double,0>::operator++
PUBLIC	??F?$mat@$03$03N$0A@@glm@@QAEAAU01@XZ		; glm::mat<4,4,double,0>::operator--
PUBLIC	??E?$mat@$03$03N$0A@@glm@@QAE?AU01@H@Z		; glm::mat<4,4,double,0>::operator++
PUBLIC	??F?$mat@$03$03N$0A@@glm@@QAE?AU01@H@Z		; glm::mat<4,4,double,0>::operator--
PUBLIC	?length@?$tquat@M$01@glm@@SAHXZ			; glm::tquat<float,2>::length
PUBLIC	??A?$tquat@M$01@glm@@QAEAAMH@Z			; glm::tquat<float,2>::operator[]
PUBLIC	??A?$tquat@M$01@glm@@QBEABMH@Z			; glm::tquat<float,2>::operator[]
PUBLIC	??0?$tquat@M$01@glm@@QAE@MABU?$vec@$02M$01@1@@Z	; glm::tquat<float,2>::tquat<float,2>
PUBLIC	??0?$tquat@M$01@glm@@QAE@MMMM@Z			; glm::tquat<float,2>::tquat<float,2>
PUBLIC	??B?$tquat@M$01@glm@@QAE?AU?$mat@$02$02M$01@1@XZ ; glm::tquat<float,2>::operator glm::mat<3,3,float,2>
PUBLIC	??B?$tquat@M$01@glm@@QAE?AU?$mat@$03$03M$01@1@XZ ; glm::tquat<float,2>::operator glm::mat<4,4,float,2>
PUBLIC	??0?$tquat@M$01@glm@@QAE@ABU?$vec@$02M$01@1@0@Z	; glm::tquat<float,2>::tquat<float,2>
PUBLIC	??0?$tquat@M$01@glm@@QAE@ABU?$vec@$02M$01@1@@Z	; glm::tquat<float,2>::tquat<float,2>
PUBLIC	??0?$tquat@M$01@glm@@QAE@ABU?$mat@$02$02M$01@1@@Z ; glm::tquat<float,2>::tquat<float,2>
PUBLIC	??0?$tquat@M$01@glm@@QAE@ABU?$mat@$03$03M$01@1@@Z ; glm::tquat<float,2>::tquat<float,2>
PUBLIC	?length@?$tquat@N$01@glm@@SAHXZ			; glm::tquat<double,2>::length
PUBLIC	??A?$tquat@N$01@glm@@QAEAANH@Z			; glm::tquat<double,2>::operator[]
PUBLIC	??A?$tquat@N$01@glm@@QBEABNH@Z			; glm::tquat<double,2>::operator[]
PUBLIC	??0?$tquat@N$01@glm@@QAE@NABU?$vec@$02N$01@1@@Z	; glm::tquat<double,2>::tquat<double,2>
PUBLIC	??0?$tquat@N$01@glm@@QAE@NNNN@Z			; glm::tquat<double,2>::tquat<double,2>
PUBLIC	??B?$tquat@N$01@glm@@QAE?AU?$mat@$02$02N$01@1@XZ ; glm::tquat<double,2>::operator glm::mat<3,3,double,2>
PUBLIC	??B?$tquat@N$01@glm@@QAE?AU?$mat@$03$03N$01@1@XZ ; glm::tquat<double,2>::operator glm::mat<4,4,double,2>
PUBLIC	??0?$tquat@N$01@glm@@QAE@ABU?$vec@$02N$01@1@0@Z	; glm::tquat<double,2>::tquat<double,2>
PUBLIC	??0?$tquat@N$01@glm@@QAE@ABU?$vec@$02N$01@1@@Z	; glm::tquat<double,2>::tquat<double,2>
PUBLIC	??0?$tquat@N$01@glm@@QAE@ABU?$mat@$02$02N$01@1@@Z ; glm::tquat<double,2>::tquat<double,2>
PUBLIC	??0?$tquat@N$01@glm@@QAE@ABU?$mat@$03$03N$01@1@@Z ; glm::tquat<double,2>::tquat<double,2>
PUBLIC	?length@?$tquat@M$00@glm@@SAHXZ			; glm::tquat<float,1>::length
PUBLIC	??A?$tquat@M$00@glm@@QAEAAMH@Z			; glm::tquat<float,1>::operator[]
PUBLIC	??A?$tquat@M$00@glm@@QBEABMH@Z			; glm::tquat<float,1>::operator[]
PUBLIC	??0?$tquat@M$00@glm@@QAE@MABU?$vec@$02M$00@1@@Z	; glm::tquat<float,1>::tquat<float,1>
PUBLIC	??0?$tquat@M$00@glm@@QAE@MMMM@Z			; glm::tquat<float,1>::tquat<float,1>
PUBLIC	??B?$tquat@M$00@glm@@QAE?AU?$mat@$02$02M$00@1@XZ ; glm::tquat<float,1>::operator glm::mat<3,3,float,1>
PUBLIC	??B?$tquat@M$00@glm@@QAE?AU?$mat@$03$03M$00@1@XZ ; glm::tquat<float,1>::operator glm::mat<4,4,float,1>
PUBLIC	??0?$tquat@M$00@glm@@QAE@ABU?$vec@$02M$00@1@0@Z	; glm::tquat<float,1>::tquat<float,1>
PUBLIC	??0?$tquat@M$00@glm@@QAE@ABU?$vec@$02M$00@1@@Z	; glm::tquat<float,1>::tquat<float,1>
PUBLIC	??0?$tquat@M$00@glm@@QAE@ABU?$mat@$02$02M$00@1@@Z ; glm::tquat<float,1>::tquat<float,1>
PUBLIC	??0?$tquat@M$00@glm@@QAE@ABU?$mat@$03$03M$00@1@@Z ; glm::tquat<float,1>::tquat<float,1>
PUBLIC	?length@?$tquat@N$00@glm@@SAHXZ			; glm::tquat<double,1>::length
PUBLIC	??A?$tquat@N$00@glm@@QAEAANH@Z			; glm::tquat<double,1>::operator[]
PUBLIC	??A?$tquat@N$00@glm@@QBEABNH@Z			; glm::tquat<double,1>::operator[]
PUBLIC	??0?$tquat@N$00@glm@@QAE@NABU?$vec@$02N$00@1@@Z	; glm::tquat<double,1>::tquat<double,1>
PUBLIC	??0?$tquat@N$00@glm@@QAE@NNNN@Z			; glm::tquat<double,1>::tquat<double,1>
PUBLIC	??B?$tquat@N$00@glm@@QAE?AU?$mat@$02$02N$00@1@XZ ; glm::tquat<double,1>::operator glm::mat<3,3,double,1>
PUBLIC	??B?$tquat@N$00@glm@@QAE?AU?$mat@$03$03N$00@1@XZ ; glm::tquat<double,1>::operator glm::mat<4,4,double,1>
PUBLIC	??0?$tquat@N$00@glm@@QAE@ABU?$vec@$02N$00@1@0@Z	; glm::tquat<double,1>::tquat<double,1>
PUBLIC	??0?$tquat@N$00@glm@@QAE@ABU?$vec@$02N$00@1@@Z	; glm::tquat<double,1>::tquat<double,1>
PUBLIC	??0?$tquat@N$00@glm@@QAE@ABU?$mat@$02$02N$00@1@@Z ; glm::tquat<double,1>::tquat<double,1>
PUBLIC	??0?$tquat@N$00@glm@@QAE@ABU?$mat@$03$03N$00@1@@Z ; glm::tquat<double,1>::tquat<double,1>
PUBLIC	?length@?$tquat@M$0A@@glm@@SAHXZ		; glm::tquat<float,0>::length
PUBLIC	??A?$tquat@M$0A@@glm@@QAEAAMH@Z			; glm::tquat<float,0>::operator[]
PUBLIC	??A?$tquat@M$0A@@glm@@QBEABMH@Z			; glm::tquat<float,0>::operator[]
PUBLIC	??0?$tquat@M$0A@@glm@@QAE@MABU?$vec@$02M$0A@@1@@Z ; glm::tquat<float,0>::tquat<float,0>
PUBLIC	??0?$tquat@M$0A@@glm@@QAE@MMMM@Z		; glm::tquat<float,0>::tquat<float,0>
PUBLIC	??B?$tquat@M$0A@@glm@@QAE?AU?$mat@$02$02M$0A@@1@XZ ; glm::tquat<float,0>::operator glm::mat<3,3,float,0>
PUBLIC	??B?$tquat@M$0A@@glm@@QAE?AU?$mat@$03$03M$0A@@1@XZ ; glm::tquat<float,0>::operator glm::mat<4,4,float,0>
PUBLIC	??0?$tquat@M$0A@@glm@@QAE@ABU?$vec@$02M$0A@@1@0@Z ; glm::tquat<float,0>::tquat<float,0>
PUBLIC	??0?$tquat@M$0A@@glm@@QAE@ABU?$vec@$02M$0A@@1@@Z ; glm::tquat<float,0>::tquat<float,0>
PUBLIC	??0?$tquat@M$0A@@glm@@QAE@ABU?$mat@$02$02M$0A@@1@@Z ; glm::tquat<float,0>::tquat<float,0>
PUBLIC	??0?$tquat@M$0A@@glm@@QAE@ABU?$mat@$03$03M$0A@@1@@Z ; glm::tquat<float,0>::tquat<float,0>
PUBLIC	?length@?$tquat@N$0A@@glm@@SAHXZ		; glm::tquat<double,0>::length
PUBLIC	??A?$tquat@N$0A@@glm@@QAEAANH@Z			; glm::tquat<double,0>::operator[]
PUBLIC	??A?$tquat@N$0A@@glm@@QBEABNH@Z			; glm::tquat<double,0>::operator[]
PUBLIC	??0?$tquat@N$0A@@glm@@QAE@NABU?$vec@$02N$0A@@1@@Z ; glm::tquat<double,0>::tquat<double,0>
PUBLIC	??0?$tquat@N$0A@@glm@@QAE@NNNN@Z		; glm::tquat<double,0>::tquat<double,0>
PUBLIC	??B?$tquat@N$0A@@glm@@QAE?AU?$mat@$02$02N$0A@@1@XZ ; glm::tquat<double,0>::operator glm::mat<3,3,double,0>
PUBLIC	??B?$tquat@N$0A@@glm@@QAE?AU?$mat@$03$03N$0A@@1@XZ ; glm::tquat<double,0>::operator glm::mat<4,4,double,0>
PUBLIC	??0?$tquat@N$0A@@glm@@QAE@ABU?$vec@$02N$0A@@1@0@Z ; glm::tquat<double,0>::tquat<double,0>
PUBLIC	??0?$tquat@N$0A@@glm@@QAE@ABU?$vec@$02N$0A@@1@@Z ; glm::tquat<double,0>::tquat<double,0>
PUBLIC	??0?$tquat@N$0A@@glm@@QAE@ABU?$mat@$02$02N$0A@@1@@Z ; glm::tquat<double,0>::tquat<double,0>
PUBLIC	??0?$tquat@N$0A@@glm@@QAE@ABU?$mat@$03$03N$0A@@1@@Z ; glm::tquat<double,0>::tquat<double,0>
PUBLIC	?length@?$tdualquat@M$01@glm@@SAHXZ		; glm::tdualquat<float,2>::length
PUBLIC	??A?$tdualquat@M$01@glm@@QAEAAU?$tquat@M$01@1@H@Z ; glm::tdualquat<float,2>::operator[]
PUBLIC	??A?$tdualquat@M$01@glm@@QBEABU?$tquat@M$01@1@H@Z ; glm::tdualquat<float,2>::operator[]
PUBLIC	??0?$tdualquat@M$01@glm@@QAE@ABU?$tquat@M$01@1@@Z ; glm::tdualquat<float,2>::tdualquat<float,2>
PUBLIC	??0?$tdualquat@M$01@glm@@QAE@ABU?$tquat@M$01@1@ABU?$vec@$02M$01@1@@Z ; glm::tdualquat<float,2>::tdualquat<float,2>
PUBLIC	??0?$tdualquat@M$01@glm@@QAE@ABU?$tquat@M$01@1@0@Z ; glm::tdualquat<float,2>::tdualquat<float,2>
PUBLIC	??0?$tdualquat@M$01@glm@@QAE@ABU?$mat@$01$03M$01@1@@Z ; glm::tdualquat<float,2>::tdualquat<float,2>
PUBLIC	??0?$tdualquat@M$01@glm@@QAE@ABU?$mat@$02$03M$01@1@@Z ; glm::tdualquat<float,2>::tdualquat<float,2>
PUBLIC	?length@?$tdualquat@N$01@glm@@SAHXZ		; glm::tdualquat<double,2>::length
PUBLIC	??A?$tdualquat@N$01@glm@@QAEAAU?$tquat@N$01@1@H@Z ; glm::tdualquat<double,2>::operator[]
PUBLIC	??A?$tdualquat@N$01@glm@@QBEABU?$tquat@N$01@1@H@Z ; glm::tdualquat<double,2>::operator[]
PUBLIC	??0?$tdualquat@N$01@glm@@QAE@ABU?$tquat@N$01@1@@Z ; glm::tdualquat<double,2>::tdualquat<double,2>
PUBLIC	??0?$tdualquat@N$01@glm@@QAE@ABU?$tquat@N$01@1@ABU?$vec@$02N$01@1@@Z ; glm::tdualquat<double,2>::tdualquat<double,2>
PUBLIC	??0?$tdualquat@N$01@glm@@QAE@ABU?$tquat@N$01@1@0@Z ; glm::tdualquat<double,2>::tdualquat<double,2>
PUBLIC	??0?$tdualquat@N$01@glm@@QAE@ABU?$mat@$01$03N$01@1@@Z ; glm::tdualquat<double,2>::tdualquat<double,2>
PUBLIC	??0?$tdualquat@N$01@glm@@QAE@ABU?$mat@$02$03N$01@1@@Z ; glm::tdualquat<double,2>::tdualquat<double,2>
PUBLIC	?length@?$tdualquat@M$00@glm@@SAHXZ		; glm::tdualquat<float,1>::length
PUBLIC	??A?$tdualquat@M$00@glm@@QAEAAU?$tquat@M$00@1@H@Z ; glm::tdualquat<float,1>::operator[]
PUBLIC	??A?$tdualquat@M$00@glm@@QBEABU?$tquat@M$00@1@H@Z ; glm::tdualquat<float,1>::operator[]
PUBLIC	??0?$tdualquat@M$00@glm@@QAE@ABU?$tquat@M$00@1@@Z ; glm::tdualquat<float,1>::tdualquat<float,1>
PUBLIC	??0?$tdualquat@M$00@glm@@QAE@ABU?$tquat@M$00@1@ABU?$vec@$02M$00@1@@Z ; glm::tdualquat<float,1>::tdualquat<float,1>
PUBLIC	??0?$tdualquat@M$00@glm@@QAE@ABU?$tquat@M$00@1@0@Z ; glm::tdualquat<float,1>::tdualquat<float,1>
PUBLIC	??0?$tdualquat@M$00@glm@@QAE@ABU?$mat@$01$03M$00@1@@Z ; glm::tdualquat<float,1>::tdualquat<float,1>
PUBLIC	??0?$tdualquat@M$00@glm@@QAE@ABU?$mat@$02$03M$00@1@@Z ; glm::tdualquat<float,1>::tdualquat<float,1>
PUBLIC	?length@?$tdualquat@N$00@glm@@SAHXZ		; glm::tdualquat<double,1>::length
PUBLIC	??A?$tdualquat@N$00@glm@@QAEAAU?$tquat@N$00@1@H@Z ; glm::tdualquat<double,1>::operator[]
PUBLIC	??A?$tdualquat@N$00@glm@@QBEABU?$tquat@N$00@1@H@Z ; glm::tdualquat<double,1>::operator[]
PUBLIC	??0?$tdualquat@N$00@glm@@QAE@ABU?$tquat@N$00@1@@Z ; glm::tdualquat<double,1>::tdualquat<double,1>
PUBLIC	??0?$tdualquat@N$00@glm@@QAE@ABU?$tquat@N$00@1@ABU?$vec@$02N$00@1@@Z ; glm::tdualquat<double,1>::tdualquat<double,1>
PUBLIC	??0?$tdualquat@N$00@glm@@QAE@ABU?$tquat@N$00@1@0@Z ; glm::tdualquat<double,1>::tdualquat<double,1>
PUBLIC	??0?$tdualquat@N$00@glm@@QAE@ABU?$mat@$01$03N$00@1@@Z ; glm::tdualquat<double,1>::tdualquat<double,1>
PUBLIC	??0?$tdualquat@N$00@glm@@QAE@ABU?$mat@$02$03N$00@1@@Z ; glm::tdualquat<double,1>::tdualquat<double,1>
PUBLIC	?length@?$tdualquat@M$0A@@glm@@SAHXZ		; glm::tdualquat<float,0>::length
PUBLIC	??A?$tdualquat@M$0A@@glm@@QAEAAU?$tquat@M$0A@@1@H@Z ; glm::tdualquat<float,0>::operator[]
PUBLIC	??A?$tdualquat@M$0A@@glm@@QBEABU?$tquat@M$0A@@1@H@Z ; glm::tdualquat<float,0>::operator[]
PUBLIC	??0?$tdualquat@M$0A@@glm@@QAE@ABU?$tquat@M$0A@@1@@Z ; glm::tdualquat<float,0>::tdualquat<float,0>
PUBLIC	??0?$tdualquat@M$0A@@glm@@QAE@ABU?$tquat@M$0A@@1@ABU?$vec@$02M$0A@@1@@Z ; glm::tdualquat<float,0>::tdualquat<float,0>
PUBLIC	??0?$tdualquat@M$0A@@glm@@QAE@ABU?$tquat@M$0A@@1@0@Z ; glm::tdualquat<float,0>::tdualquat<float,0>
PUBLIC	??0?$tdualquat@M$0A@@glm@@QAE@ABU?$mat@$01$03M$0A@@1@@Z ; glm::tdualquat<float,0>::tdualquat<float,0>
PUBLIC	??0?$tdualquat@M$0A@@glm@@QAE@ABU?$mat@$02$03M$0A@@1@@Z ; glm::tdualquat<float,0>::tdualquat<float,0>
PUBLIC	?length@?$tdualquat@N$0A@@glm@@SAHXZ		; glm::tdualquat<double,0>::length
PUBLIC	??A?$tdualquat@N$0A@@glm@@QAEAAU?$tquat@N$0A@@1@H@Z ; glm::tdualquat<double,0>::operator[]
PUBLIC	??A?$tdualquat@N$0A@@glm@@QBEABU?$tquat@N$0A@@1@H@Z ; glm::tdualquat<double,0>::operator[]
PUBLIC	??0?$tdualquat@N$0A@@glm@@QAE@ABU?$tquat@N$0A@@1@@Z ; glm::tdualquat<double,0>::tdualquat<double,0>
PUBLIC	??0?$tdualquat@N$0A@@glm@@QAE@ABU?$tquat@N$0A@@1@ABU?$vec@$02N$0A@@1@@Z ; glm::tdualquat<double,0>::tdualquat<double,0>
PUBLIC	??0?$tdualquat@N$0A@@glm@@QAE@ABU?$tquat@N$0A@@1@0@Z ; glm::tdualquat<double,0>::tdualquat<double,0>
PUBLIC	??0?$tdualquat@N$0A@@glm@@QAE@ABU?$mat@$01$03N$0A@@1@@Z ; glm::tdualquat<double,0>::tdualquat<double,0>
PUBLIC	??0?$tdualquat@N$0A@@glm@@QAE@ABU?$mat@$02$03N$0A@@1@@Z ; glm::tdualquat<double,0>::tdualquat<double,0>
PUBLIC	??$?0HHHH@?$vec@$03M$01@glm@@QAE@HHHH@Z		; glm::vec<4,float,2>::vec<4,float,2><int,int,int,int>
PUBLIC	??$?0MHHH@?$vec@$03M$01@glm@@QAE@MHHH@Z		; glm::vec<4,float,2>::vec<4,float,2><float,int,int,int>
PUBLIC	??$?0HMHH@?$vec@$03M$01@glm@@QAE@HMHH@Z		; glm::vec<4,float,2>::vec<4,float,2><int,float,int,int>
PUBLIC	??$?0HHMH@?$vec@$03M$01@glm@@QAE@HHMH@Z		; glm::vec<4,float,2>::vec<4,float,2><int,int,float,int>
PUBLIC	??$?0HHHH@?$vec@$03M$00@glm@@QAE@HHHH@Z		; glm::vec<4,float,1>::vec<4,float,1><int,int,int,int>
PUBLIC	??$?0MHHH@?$vec@$03M$00@glm@@QAE@MHHH@Z		; glm::vec<4,float,1>::vec<4,float,1><float,int,int,int>
PUBLIC	??$?0HMHH@?$vec@$03M$00@glm@@QAE@HMHH@Z		; glm::vec<4,float,1>::vec<4,float,1><int,float,int,int>
PUBLIC	??$?0HHMH@?$vec@$03M$00@glm@@QAE@HHMH@Z		; glm::vec<4,float,1>::vec<4,float,1><int,int,float,int>
PUBLIC	??$?0HHHH@?$vec@$03M$0A@@glm@@QAE@HHHH@Z	; glm::vec<4,float,0>::vec<4,float,0><int,int,int,int>
PUBLIC	??$?0MHHH@?$vec@$03M$0A@@glm@@QAE@MHHH@Z	; glm::vec<4,float,0>::vec<4,float,0><float,int,int,int>
PUBLIC	??$?0HMHH@?$vec@$03M$0A@@glm@@QAE@HMHH@Z	; glm::vec<4,float,0>::vec<4,float,0><int,float,int,int>
PUBLIC	??$?0HHMH@?$vec@$03M$0A@@glm@@QAE@HHMH@Z	; glm::vec<4,float,0>::vec<4,float,0><int,int,float,int>
PUBLIC	??$?0HHHM@?$vec@$03M$01@glm@@QAE@HHHM@Z		; glm::vec<4,float,2>::vec<4,float,2><int,int,int,float>
PUBLIC	??$?0HHHM@?$vec@$03M$00@glm@@QAE@HHHM@Z		; glm::vec<4,float,1>::vec<4,float,1><int,int,int,float>
PUBLIC	??$?0HHHM@?$vec@$03M$0A@@glm@@QAE@HHHM@Z	; glm::vec<4,float,0>::vec<4,float,0><int,int,int,float>
PUBLIC	??$?0HHHH@?$vec@$03N$01@glm@@QAE@HHHH@Z		; glm::vec<4,double,2>::vec<4,double,2><int,int,int,int>
PUBLIC	??$?0NHHH@?$vec@$03N$01@glm@@QAE@NHHH@Z		; glm::vec<4,double,2>::vec<4,double,2><double,int,int,int>
PUBLIC	??$?0HNHH@?$vec@$03N$01@glm@@QAE@HNHH@Z		; glm::vec<4,double,2>::vec<4,double,2><int,double,int,int>
PUBLIC	??$?0HHNH@?$vec@$03N$01@glm@@QAE@HHNH@Z		; glm::vec<4,double,2>::vec<4,double,2><int,int,double,int>
PUBLIC	??$?0HHHH@?$vec@$03N$00@glm@@QAE@HHHH@Z		; glm::vec<4,double,1>::vec<4,double,1><int,int,int,int>
PUBLIC	??$?0NHHH@?$vec@$03N$00@glm@@QAE@NHHH@Z		; glm::vec<4,double,1>::vec<4,double,1><double,int,int,int>
PUBLIC	??$?0HNHH@?$vec@$03N$00@glm@@QAE@HNHH@Z		; glm::vec<4,double,1>::vec<4,double,1><int,double,int,int>
PUBLIC	??$?0HHNH@?$vec@$03N$00@glm@@QAE@HHNH@Z		; glm::vec<4,double,1>::vec<4,double,1><int,int,double,int>
PUBLIC	??$?0HHHH@?$vec@$03N$0A@@glm@@QAE@HHHH@Z	; glm::vec<4,double,0>::vec<4,double,0><int,int,int,int>
PUBLIC	??$?0NHHH@?$vec@$03N$0A@@glm@@QAE@NHHH@Z	; glm::vec<4,double,0>::vec<4,double,0><double,int,int,int>
PUBLIC	??$?0HNHH@?$vec@$03N$0A@@glm@@QAE@HNHH@Z	; glm::vec<4,double,0>::vec<4,double,0><int,double,int,int>
PUBLIC	??$?0HHNH@?$vec@$03N$0A@@glm@@QAE@HHNH@Z	; glm::vec<4,double,0>::vec<4,double,0><int,int,double,int>
PUBLIC	??$?0HHHN@?$vec@$03N$01@glm@@QAE@HHHN@Z		; glm::vec<4,double,2>::vec<4,double,2><int,int,int,double>
PUBLIC	??$?0HHHN@?$vec@$03N$00@glm@@QAE@HHHN@Z		; glm::vec<4,double,1>::vec<4,double,1><int,int,int,double>
PUBLIC	??$?0HHHN@?$vec@$03N$0A@@glm@@QAE@HHHN@Z	; glm::vec<4,double,0>::vec<4,double,0><int,int,int,double>
PUBLIC	??$quat_cast@M$01@glm@@YA?AU?$tquat@M$01@0@ABU?$mat@$02$02M$01@0@@Z ; glm::quat_cast<float,2>
PUBLIC	??$quat_cast@M$00@glm@@YA?AU?$tquat@M$00@0@ABU?$mat@$02$02M$00@0@@Z ; glm::quat_cast<float,1>
PUBLIC	??$quat_cast@M$0A@@glm@@YA?AU?$tquat@M$0A@@0@ABU?$mat@$02$02M$0A@@0@@Z ; glm::quat_cast<float,0>
PUBLIC	??$quat_cast@N$01@glm@@YA?AU?$tquat@N$01@0@ABU?$mat@$02$02N$01@0@@Z ; glm::quat_cast<double,2>
PUBLIC	??$quat_cast@N$00@glm@@YA?AU?$tquat@N$00@0@ABU?$mat@$02$02N$00@0@@Z ; glm::quat_cast<double,1>
PUBLIC	??$quat_cast@N$0A@@glm@@YA?AU?$tquat@N$0A@@0@ABU?$mat@$02$02N$0A@@0@@Z ; glm::quat_cast<double,0>
PUBLIC	__real@00000000
PUBLIC	__real@0000000000000000
PUBLIC	__real@358637bd
PUBLIC	__real@3e800000
PUBLIC	__real@3eb0c6f7a0000000
PUBLIC	__real@3f000000
PUBLIC	__real@3f800000
PUBLIC	__real@3fd0000000000000
PUBLIC	__real@3fe0000000000000
PUBLIC	__real@3ff0000000000000
PUBLIC	__real@bf000000
PUBLIC	__real@bfe0000000000000
PUBLIC	__xmm@00000000000000003ff0000000000000
PUBLIC	__xmm@00000000000000010000000000000001
PUBLIC	__xmm@000000003f8000000000000000000000
PUBLIC	__xmm@00000001000000010000000100000001
PUBLIC	__xmm@3f800000000000000000000000000000
PUBLIC	__xmm@3f8000003f8000003f8000003f800000
PUBLIC	__xmm@3ff00000000000000000000000000000
PUBLIC	__xmm@3ff00000000000003ff0000000000000
PUBLIC	__xmm@7fffffff7fffffff7fffffff7fffffff
PUBLIC	__xmm@7fffffffffffffff7fffffffffffffff
PUBLIC	__xmm@80000000000000008000000000000000
PUBLIC	__xmm@80000000800000008000000080000000
PUBLIC	__xmm@ffffffffffffffffffffffffffffffff
EXTRN	_cos:PROC
EXTRN	_sin:PROC
EXTRN	@__security_check_cookie@4:PROC
EXTRN	__libm_sse2_cos_precise:PROC
EXTRN	__libm_sse2_sin_precise:PROC
EXTRN	__libm_sse2_sqrt_precise:PROC
EXTRN	___security_cookie:DWORD
EXTRN	__fltused:DWORD
;	COMDAT __xmm@ffffffffffffffffffffffffffffffff
CONST	SEGMENT
__xmm@ffffffffffffffffffffffffffffffff DB 0ffH, 0ffH, 0ffH, 0ffH, 0ffH, 0ffH
	DB	0ffH, 0ffH, 0ffH, 0ffH, 0ffH, 0ffH, 0ffH, 0ffH, 0ffH, 0ffH
CONST	ENDS
;	COMDAT __xmm@80000000800000008000000080000000
CONST	SEGMENT
__xmm@80000000800000008000000080000000 DB 00H, 00H, 00H, 080H, 00H, 00H, 00H
	DB	080H, 00H, 00H, 00H, 080H, 00H, 00H, 00H, 080H
CONST	ENDS
;	COMDAT __xmm@80000000000000008000000000000000
CONST	SEGMENT
__xmm@80000000000000008000000000000000 DB 00H, 00H, 00H, 00H, 00H, 00H, 00H
	DB	080H, 00H, 00H, 00H, 00H, 00H, 00H, 00H, 080H
CONST	ENDS
;	COMDAT __xmm@7fffffffffffffff7fffffffffffffff
CONST	SEGMENT
__xmm@7fffffffffffffff7fffffffffffffff DB 0ffH, 0ffH, 0ffH, 0ffH, 0ffH, 0ffH
	DB	0ffH, 07fH, 0ffH, 0ffH, 0ffH, 0ffH, 0ffH, 0ffH, 0ffH, 07fH
CONST	ENDS
;	COMDAT __xmm@7fffffff7fffffff7fffffff7fffffff
CONST	SEGMENT
__xmm@7fffffff7fffffff7fffffff7fffffff DB 0ffH, 0ffH, 0ffH, 07fH, 0ffH, 0ffH
	DB	0ffH, 07fH, 0ffH, 0ffH, 0ffH, 07fH, 0ffH, 0ffH, 0ffH, 07fH
CONST	ENDS
;	COMDAT __xmm@3ff00000000000003ff0000000000000
CONST	SEGMENT
__xmm@3ff00000000000003ff0000000000000 DB 00H, 00H, 00H, 00H, 00H, 00H, 0f0H
	DB	'?', 00H, 00H, 00H, 00H, 00H, 00H, 0f0H, '?'
CONST	ENDS
;	COMDAT __xmm@3ff00000000000000000000000000000
CONST	SEGMENT
__xmm@3ff00000000000000000000000000000 DB 00H, 00H, 00H, 00H, 00H, 00H, 00H
	DB	00H, 00H, 00H, 00H, 00H, 00H, 00H, 0f0H, '?'
CONST	ENDS
;	COMDAT __xmm@3f8000003f8000003f8000003f800000
CONST	SEGMENT
__xmm@3f8000003f8000003f8000003f800000 DB 00H, 00H, 080H, '?', 00H, 00H, 080H
	DB	'?', 00H, 00H, 080H, '?', 00H, 00H, 080H, '?'
CONST	ENDS
;	COMDAT __xmm@3f800000000000000000000000000000
CONST	SEGMENT
__xmm@3f800000000000000000000000000000 DB 00H, 00H, 00H, 00H, 00H, 00H, 00H
	DB	00H, 00H, 00H, 00H, 00H, 00H, 00H, 080H, '?'
CONST	ENDS
;	COMDAT __xmm@00000001000000010000000100000001
CONST	SEGMENT
__xmm@00000001000000010000000100000001 DB 01H, 00H, 00H, 00H, 01H, 00H, 00H
	DB	00H, 01H, 00H, 00H, 00H, 01H, 00H, 00H, 00H
CONST	ENDS
;	COMDAT __xmm@000000003f8000000000000000000000
CONST	SEGMENT
__xmm@000000003f8000000000000000000000 DB 00H, 00H, 00H, 00H, 00H, 00H, 00H
	DB	00H, 00H, 00H, 080H, '?', 00H, 00H, 00H, 00H
CONST	ENDS
;	COMDAT __xmm@00000000000000010000000000000001
CONST	SEGMENT
__xmm@00000000000000010000000000000001 DB 01H, 00H, 00H, 00H, 00H, 00H, 00H
	DB	00H, 01H, 00H, 00H, 00H, 00H, 00H, 00H, 00H
CONST	ENDS
;	COMDAT __xmm@00000000000000003ff0000000000000
CONST	SEGMENT
__xmm@00000000000000003ff0000000000000 DB 00H, 00H, 00H, 00H, 00H, 00H, 0f0H
	DB	'?', 00H, 00H, 00H, 00H, 00H, 00H, 00H, 00H
CONST	ENDS
;	COMDAT __real@bfe0000000000000
CONST	SEGMENT
__real@bfe0000000000000 DQ 0bfe0000000000000r	; -0.5
CONST	ENDS
;	COMDAT __real@bf000000
CONST	SEGMENT
__real@bf000000 DD 0bf000000r			; -0.5
CONST	ENDS
;	COMDAT __real@3ff0000000000000
CONST	SEGMENT
__real@3ff0000000000000 DQ 03ff0000000000000r	; 1
CONST	ENDS
;	COMDAT __real@3fe0000000000000
CONST	SEGMENT
__real@3fe0000000000000 DQ 03fe0000000000000r	; 0.5
CONST	ENDS
;	COMDAT __real@3fd0000000000000
CONST	SEGMENT
__real@3fd0000000000000 DQ 03fd0000000000000r	; 0.25
CONST	ENDS
;	COMDAT __real@3f800000
CONST	SEGMENT
__real@3f800000 DD 03f800000r			; 1
CONST	ENDS
;	COMDAT __real@3f000000
CONST	SEGMENT
__real@3f000000 DD 03f000000r			; 0.5
CONST	ENDS
;	COMDAT __real@3eb0c6f7a0000000
CONST	SEGMENT
__real@3eb0c6f7a0000000 DQ 03eb0c6f7a0000000r	; 1e-06
CONST	ENDS
;	COMDAT __real@3e800000
CONST	SEGMENT
__real@3e800000 DD 03e800000r			; 0.25
CONST	ENDS
;	COMDAT __real@358637bd
CONST	SEGMENT
__real@358637bd DD 0358637bdr			; 1e-06
CONST	ENDS
;	COMDAT __real@0000000000000000
CONST	SEGMENT
__real@0000000000000000 DQ 00000000000000000r	; 0
CONST	ENDS
;	COMDAT __real@00000000
CONST	SEGMENT
__real@00000000 DD 000000000r			; 0
CONST	ENDS
; Function compile flags: /Ogtp
; File c:\users\bachmaer\downloads\glm-0.9.9.0\glm\glm\gtc\quaternion.inl
; File c:\users\bachmaer\downloads\glm-0.9.9.0\glm\glm\detail\type_vec4.inl
; File c:\users\bachmaer\downloads\glm-0.9.9.0\glm\glm\gtc\quaternion.inl
;	COMDAT ?call@?$compute_dot@U?$tquat@N$0A@@glm@@N$0A@@detail@glm@@SANABU?$tquat@N$0A@@3@0@Z
_TEXT	SEGMENT
tv175 = -8						; size = 8
_a$ = 8							; size = 4
_b$ = 12						; size = 4
?call@?$compute_dot@U?$tquat@N$0A@@glm@@N$0A@@detail@glm@@SANABU?$tquat@N$0A@@3@0@Z PROC ; glm::detail::compute_dot<glm::tquat<double,0>,double,0>::call, COMDAT

; 18   : 		{

	push	ebp
	mov	ebp, esp
	sub	esp, 8

; 19   : 			vec<4, T, Q> tmp(a.x * b.x, a.y * b.y, a.z * b.z, a.w * b.w);

	mov	ecx, DWORD PTR _a$[ebp]
	mov	eax, DWORD PTR _b$[ebp]
	movsd	xmm0, QWORD PTR [ecx+16]
	movsd	xmm2, QWORD PTR [ecx+24]
	mulsd	xmm0, QWORD PTR [eax+16]
	mulsd	xmm2, QWORD PTR [eax+24]
	movsd	xmm1, QWORD PTR [ecx+8]
	mulsd	xmm1, QWORD PTR [eax+8]
; File c:\users\bachmaer\downloads\glm-0.9.9.0\glm\glm\detail\type_vec4.inl

; 192  : 		: x(_x), y(_y), z(_z), w(_w)

	addsd	xmm2, xmm0
; File c:\users\bachmaer\downloads\glm-0.9.9.0\glm\glm\gtc\quaternion.inl

; 19   : 			vec<4, T, Q> tmp(a.x * b.x, a.y * b.y, a.z * b.z, a.w * b.w);

	movsd	xmm0, QWORD PTR [ecx]
	mulsd	xmm0, QWORD PTR [eax]

; 20   : 			return (tmp.x + tmp.y) + (tmp.z + tmp.w);

	addsd	xmm1, xmm0
	addsd	xmm2, xmm1
	movsd	QWORD PTR tv175[ebp], xmm2
	fld	QWORD PTR tv175[ebp]

; 21   : 		}

	mov	esp, ebp
	pop	ebp
	ret	0
?call@?$compute_dot@U?$tquat@N$0A@@glm@@N$0A@@detail@glm@@SANABU?$tquat@N$0A@@3@0@Z ENDP ; glm::detail::compute_dot<glm::tquat<double,0>,double,0>::call
_TEXT	ENDS
; Function compile flags: /Ogtp
; File c:\users\bachmaer\downloads\glm-0.9.9.0\glm\glm\gtc\quaternion.inl
; File c:\users\bachmaer\downloads\glm-0.9.9.0\glm\glm\detail\type_vec4.inl
; File c:\users\bachmaer\downloads\glm-0.9.9.0\glm\glm\gtc\quaternion.inl
;	COMDAT ?call@?$compute_dot@U?$tquat@N$00@glm@@N$0A@@detail@glm@@SANABU?$tquat@N$00@3@0@Z
_TEXT	SEGMENT
tv175 = -8						; size = 8
_a$ = 8							; size = 4
_b$ = 12						; size = 4
?call@?$compute_dot@U?$tquat@N$00@glm@@N$0A@@detail@glm@@SANABU?$tquat@N$00@3@0@Z PROC ; glm::detail::compute_dot<glm::tquat<double,1>,double,0>::call, COMDAT

; 18   : 		{

	push	ebp
	mov	ebp, esp
	sub	esp, 8

; 19   : 			vec<4, T, Q> tmp(a.x * b.x, a.y * b.y, a.z * b.z, a.w * b.w);

	mov	ecx, DWORD PTR _a$[ebp]
	mov	eax, DWORD PTR _b$[ebp]
	movsd	xmm0, QWORD PTR [ecx+16]
	movsd	xmm2, QWORD PTR [ecx+24]
	mulsd	xmm0, QWORD PTR [eax+16]
	mulsd	xmm2, QWORD PTR [eax+24]
	movsd	xmm1, QWORD PTR [ecx+8]
	mulsd	xmm1, QWORD PTR [eax+8]
; File c:\users\bachmaer\downloads\glm-0.9.9.0\glm\glm\detail\type_vec4.inl

; 192  : 		: x(_x), y(_y), z(_z), w(_w)

	addsd	xmm2, xmm0
; File c:\users\bachmaer\downloads\glm-0.9.9.0\glm\glm\gtc\quaternion.inl

; 19   : 			vec<4, T, Q> tmp(a.x * b.x, a.y * b.y, a.z * b.z, a.w * b.w);

	movsd	xmm0, QWORD PTR [ecx]
	mulsd	xmm0, QWORD PTR [eax]

; 20   : 			return (tmp.x + tmp.y) + (tmp.z + tmp.w);

	addsd	xmm1, xmm0
	addsd	xmm2, xmm1
	movsd	QWORD PTR tv175[ebp], xmm2
	fld	QWORD PTR tv175[ebp]

; 21   : 		}

	mov	esp, ebp
	pop	ebp
	ret	0
?call@?$compute_dot@U?$tquat@N$00@glm@@N$0A@@detail@glm@@SANABU?$tquat@N$00@3@0@Z ENDP ; glm::detail::compute_dot<glm::tquat<double,1>,double,0>::call
_TEXT	ENDS
; Function compile flags: /Ogtp
; File c:\users\bachmaer\downloads\glm-0.9.9.0\glm\glm\gtc\quaternion.inl
; File c:\users\bachmaer\downloads\glm-0.9.9.0\glm\glm\detail\type_vec4.inl
; File c:\users\bachmaer\downloads\glm-0.9.9.0\glm\glm\gtc\quaternion.inl
;	COMDAT ?call@?$compute_dot@U?$tquat@N$01@glm@@N$0A@@detail@glm@@SANABU?$tquat@N$01@3@0@Z
_TEXT	SEGMENT
tv175 = -8						; size = 8
_a$ = 8							; size = 4
_b$ = 12						; size = 4
?call@?$compute_dot@U?$tquat@N$01@glm@@N$0A@@detail@glm@@SANABU?$tquat@N$01@3@0@Z PROC ; glm::detail::compute_dot<glm::tquat<double,2>,double,0>::call, COMDAT

; 18   : 		{

	push	ebp
	mov	ebp, esp
	sub	esp, 8

; 19   : 			vec<4, T, Q> tmp(a.x * b.x, a.y * b.y, a.z * b.z, a.w * b.w);

	mov	ecx, DWORD PTR _a$[ebp]
	mov	eax, DWORD PTR _b$[ebp]
	movsd	xmm0, QWORD PTR [ecx+16]
	movsd	xmm2, QWORD PTR [ecx+24]
	mulsd	xmm0, QWORD PTR [eax+16]
	mulsd	xmm2, QWORD PTR [eax+24]
	movsd	xmm1, QWORD PTR [ecx+8]
	mulsd	xmm1, QWORD PTR [eax+8]
; File c:\users\bachmaer\downloads\glm-0.9.9.0\glm\glm\detail\type_vec4.inl

; 192  : 		: x(_x), y(_y), z(_z), w(_w)

	addsd	xmm2, xmm0
; File c:\users\bachmaer\downloads\glm-0.9.9.0\glm\glm\gtc\quaternion.inl

; 19   : 			vec<4, T, Q> tmp(a.x * b.x, a.y * b.y, a.z * b.z, a.w * b.w);

	movsd	xmm0, QWORD PTR [ecx]
	mulsd	xmm0, QWORD PTR [eax]

; 20   : 			return (tmp.x + tmp.y) + (tmp.z + tmp.w);

	addsd	xmm1, xmm0
	addsd	xmm2, xmm1
	movsd	QWORD PTR tv175[ebp], xmm2
	fld	QWORD PTR tv175[ebp]

; 21   : 		}

	mov	esp, ebp
	pop	ebp
	ret	0
?call@?$compute_dot@U?$tquat@N$01@glm@@N$0A@@detail@glm@@SANABU?$tquat@N$01@3@0@Z ENDP ; glm::detail::compute_dot<glm::tquat<double,2>,double,0>::call
_TEXT	ENDS
; Function compile flags: /Ogtp
; File c:\users\bachmaer\downloads\glm-0.9.9.0\glm\glm\gtc\quaternion.inl
; File c:\users\bachmaer\downloads\glm-0.9.9.0\glm\glm\detail\type_vec4.inl
; File c:\users\bachmaer\downloads\glm-0.9.9.0\glm\glm\gtc\quaternion.inl
;	COMDAT ?call@?$compute_dot@U?$tquat@M$0A@@glm@@M$0A@@detail@glm@@SAMABU?$tquat@M$0A@@3@0@Z
_TEXT	SEGMENT
tv175 = 8						; size = 4
_a$ = 8							; size = 4
_b$ = 12						; size = 4
?call@?$compute_dot@U?$tquat@M$0A@@glm@@M$0A@@detail@glm@@SAMABU?$tquat@M$0A@@3@0@Z PROC ; glm::detail::compute_dot<glm::tquat<float,0>,float,0>::call, COMDAT

; 18   : 		{

	push	ebp
	mov	ebp, esp

; 19   : 			vec<4, T, Q> tmp(a.x * b.x, a.y * b.y, a.z * b.z, a.w * b.w);

	mov	ecx, DWORD PTR _a$[ebp]
	mov	eax, DWORD PTR _b$[ebp]
	movss	xmm0, DWORD PTR [ecx+8]
	movss	xmm2, DWORD PTR [ecx+12]
	mulss	xmm0, DWORD PTR [eax+8]
	mulss	xmm2, DWORD PTR [eax+12]
	movss	xmm1, DWORD PTR [ecx+4]
	mulss	xmm1, DWORD PTR [eax+4]
; File c:\users\bachmaer\downloads\glm-0.9.9.0\glm\glm\detail\type_vec4.inl

; 192  : 		: x(_x), y(_y), z(_z), w(_w)

	addss	xmm2, xmm0
; File c:\users\bachmaer\downloads\glm-0.9.9.0\glm\glm\gtc\quaternion.inl

; 19   : 			vec<4, T, Q> tmp(a.x * b.x, a.y * b.y, a.z * b.z, a.w * b.w);

	movss	xmm0, DWORD PTR [ecx]
	mulss	xmm0, DWORD PTR [eax]

; 20   : 			return (tmp.x + tmp.y) + (tmp.z + tmp.w);

	addss	xmm1, xmm0
	addss	xmm2, xmm1
	movss	DWORD PTR tv175[ebp], xmm2
	fld	DWORD PTR tv175[ebp]

; 21   : 		}

	pop	ebp
	ret	0
?call@?$compute_dot@U?$tquat@M$0A@@glm@@M$0A@@detail@glm@@SAMABU?$tquat@M$0A@@3@0@Z ENDP ; glm::detail::compute_dot<glm::tquat<float,0>,float,0>::call
_TEXT	ENDS
; Function compile flags: /Ogtp
; File c:\users\bachmaer\downloads\glm-0.9.9.0\glm\glm\gtc\quaternion.inl
; File c:\users\bachmaer\downloads\glm-0.9.9.0\glm\glm\detail\type_vec4.inl
; File c:\users\bachmaer\downloads\glm-0.9.9.0\glm\glm\gtc\quaternion.inl
;	COMDAT ?call@?$compute_dot@U?$tquat@M$00@glm@@M$0A@@detail@glm@@SAMABU?$tquat@M$00@3@0@Z
_TEXT	SEGMENT
tv175 = 8						; size = 4
_a$ = 8							; size = 4
_b$ = 12						; size = 4
?call@?$compute_dot@U?$tquat@M$00@glm@@M$0A@@detail@glm@@SAMABU?$tquat@M$00@3@0@Z PROC ; glm::detail::compute_dot<glm::tquat<float,1>,float,0>::call, COMDAT

; 18   : 		{

	push	ebp
	mov	ebp, esp

; 19   : 			vec<4, T, Q> tmp(a.x * b.x, a.y * b.y, a.z * b.z, a.w * b.w);

	mov	ecx, DWORD PTR _a$[ebp]
	mov	eax, DWORD PTR _b$[ebp]
	movss	xmm0, DWORD PTR [ecx+8]
	movss	xmm2, DWORD PTR [ecx+12]
	mulss	xmm0, DWORD PTR [eax+8]
	mulss	xmm2, DWORD PTR [eax+12]
	movss	xmm1, DWORD PTR [ecx+4]
	mulss	xmm1, DWORD PTR [eax+4]
; File c:\users\bachmaer\downloads\glm-0.9.9.0\glm\glm\detail\type_vec4.inl

; 192  : 		: x(_x), y(_y), z(_z), w(_w)

	addss	xmm2, xmm0
; File c:\users\bachmaer\downloads\glm-0.9.9.0\glm\glm\gtc\quaternion.inl

; 19   : 			vec<4, T, Q> tmp(a.x * b.x, a.y * b.y, a.z * b.z, a.w * b.w);

	movss	xmm0, DWORD PTR [ecx]
	mulss	xmm0, DWORD PTR [eax]

; 20   : 			return (tmp.x + tmp.y) + (tmp.z + tmp.w);

	addss	xmm1, xmm0
	addss	xmm2, xmm1
	movss	DWORD PTR tv175[ebp], xmm2
	fld	DWORD PTR tv175[ebp]

; 21   : 		}

	pop	ebp
	ret	0
?call@?$compute_dot@U?$tquat@M$00@glm@@M$0A@@detail@glm@@SAMABU?$tquat@M$00@3@0@Z ENDP ; glm::detail::compute_dot<glm::tquat<float,1>,float,0>::call
_TEXT	ENDS
; Function compile flags: /Ogtp
; File c:\users\bachmaer\downloads\glm-0.9.9.0\glm\glm\gtc\quaternion.inl
; File c:\users\bachmaer\downloads\glm-0.9.9.0\glm\glm\detail\type_vec4.inl
; File c:\users\bachmaer\downloads\glm-0.9.9.0\glm\glm\gtc\quaternion.inl
;	COMDAT ?call@?$compute_dot@U?$tquat@M$01@glm@@M$0A@@detail@glm@@SAMABU?$tquat@M$01@3@0@Z
_TEXT	SEGMENT
tv175 = 8						; size = 4
_a$ = 8							; size = 4
_b$ = 12						; size = 4
?call@?$compute_dot@U?$tquat@M$01@glm@@M$0A@@detail@glm@@SAMABU?$tquat@M$01@3@0@Z PROC ; glm::detail::compute_dot<glm::tquat<float,2>,float,0>::call, COMDAT

; 18   : 		{

	push	ebp
	mov	ebp, esp

; 19   : 			vec<4, T, Q> tmp(a.x * b.x, a.y * b.y, a.z * b.z, a.w * b.w);

	mov	ecx, DWORD PTR _a$[ebp]
	mov	eax, DWORD PTR _b$[ebp]
	movss	xmm0, DWORD PTR [ecx+8]
	movss	xmm2, DWORD PTR [ecx+12]
	mulss	xmm0, DWORD PTR [eax+8]
	mulss	xmm2, DWORD PTR [eax+12]
	movss	xmm1, DWORD PTR [ecx+4]
	mulss	xmm1, DWORD PTR [eax+4]
; File c:\users\bachmaer\downloads\glm-0.9.9.0\glm\glm\detail\type_vec4.inl

; 192  : 		: x(_x), y(_y), z(_z), w(_w)

	addss	xmm2, xmm0
; File c:\users\bachmaer\downloads\glm-0.9.9.0\glm\glm\gtc\quaternion.inl

; 19   : 			vec<4, T, Q> tmp(a.x * b.x, a.y * b.y, a.z * b.z, a.w * b.w);

	movss	xmm0, DWORD PTR [ecx]
	mulss	xmm0, DWORD PTR [eax]

; 20   : 			return (tmp.x + tmp.y) + (tmp.z + tmp.w);

	addss	xmm1, xmm0
	addss	xmm2, xmm1
	movss	DWORD PTR tv175[ebp], xmm2
	fld	DWORD PTR tv175[ebp]

; 21   : 		}

	pop	ebp
	ret	0
?call@?$compute_dot@U?$tquat@M$01@glm@@M$0A@@detail@glm@@SAMABU?$tquat@M$01@3@0@Z ENDP ; glm::detail::compute_dot<glm::tquat<float,2>,float,0>::call
_TEXT	ENDS
; Function compile flags: /Ogtp
; File c:\users\bachmaer\downloads\glm-0.9.9.0\glm\glm\gtc\quaternion.inl
; File c:\users\bachmaer\downloads\glm-0.9.9.0\glm\glm\detail\type_vec4.inl
; File c:\users\bachmaer\downloads\glm-0.9.9.0\glm\glm\gtc\quaternion.inl
;	COMDAT ??$dot@N$0A@@glm@@YANABU?$tquat@N$0A@@0@0@Z
_TEXT	SEGMENT
tv175 = -8						; size = 8
_x$ = 8							; size = 4
_y$ = 12						; size = 4
??$dot@N$0A@@glm@@YANABU?$tquat@N$0A@@0@0@Z PROC	; glm::dot<double,0>, COMDAT

; 392  : 	{

	push	ebp
	mov	ebp, esp
	sub	esp, 8

; 19   : 			vec<4, T, Q> tmp(a.x * b.x, a.y * b.y, a.z * b.z, a.w * b.w);

	mov	ecx, DWORD PTR _x$[ebp]
	mov	eax, DWORD PTR _y$[ebp]
	movsd	xmm0, QWORD PTR [ecx+16]
	movsd	xmm2, QWORD PTR [ecx+24]
	mulsd	xmm0, QWORD PTR [eax+16]
	mulsd	xmm2, QWORD PTR [eax+24]
	movsd	xmm1, QWORD PTR [ecx+8]
	mulsd	xmm1, QWORD PTR [eax+8]
; File c:\users\bachmaer\downloads\glm-0.9.9.0\glm\glm\detail\type_vec4.inl

; 192  : 		: x(_x), y(_y), z(_z), w(_w)

	addsd	xmm2, xmm0
; File c:\users\bachmaer\downloads\glm-0.9.9.0\glm\glm\gtc\quaternion.inl

; 19   : 			vec<4, T, Q> tmp(a.x * b.x, a.y * b.y, a.z * b.z, a.w * b.w);

	movsd	xmm0, QWORD PTR [ecx]
	mulsd	xmm0, QWORD PTR [eax]

; 20   : 			return (tmp.x + tmp.y) + (tmp.z + tmp.w);

	addsd	xmm1, xmm0
	addsd	xmm2, xmm1

; 393  : 		GLM_STATIC_ASSERT(std::numeric_limits<T>::is_iec559, "'dot' accepts only floating-point inputs");
; 394  : 		return detail::compute_dot<tquat<T, Q>, T, detail::is_aligned<Q>::value>::call(x, y);

	movsd	QWORD PTR tv175[ebp], xmm2
	fld	QWORD PTR tv175[ebp]

; 395  : 	}

	mov	esp, ebp
	pop	ebp
	ret	0
??$dot@N$0A@@glm@@YANABU?$tquat@N$0A@@0@0@Z ENDP	; glm::dot<double,0>
_TEXT	ENDS
; Function compile flags: /Ogtp
; File c:\users\bachmaer\downloads\glm-0.9.9.0\glm\glm\gtc\quaternion.inl
; File c:\users\bachmaer\downloads\glm-0.9.9.0\glm\glm\detail\type_vec4.inl
; File c:\users\bachmaer\downloads\glm-0.9.9.0\glm\glm\gtc\quaternion.inl
;	COMDAT ??$dot@N$00@glm@@YANABU?$tquat@N$00@0@0@Z
_TEXT	SEGMENT
tv175 = -8						; size = 8
_x$ = 8							; size = 4
_y$ = 12						; size = 4
??$dot@N$00@glm@@YANABU?$tquat@N$00@0@0@Z PROC		; glm::dot<double,1>, COMDAT

; 392  : 	{

	push	ebp
	mov	ebp, esp
	sub	esp, 8

; 19   : 			vec<4, T, Q> tmp(a.x * b.x, a.y * b.y, a.z * b.z, a.w * b.w);

	mov	ecx, DWORD PTR _x$[ebp]
	mov	eax, DWORD PTR _y$[ebp]
	movsd	xmm0, QWORD PTR [ecx+16]
	movsd	xmm2, QWORD PTR [ecx+24]
	mulsd	xmm0, QWORD PTR [eax+16]
	mulsd	xmm2, QWORD PTR [eax+24]
	movsd	xmm1, QWORD PTR [ecx+8]
	mulsd	xmm1, QWORD PTR [eax+8]
; File c:\users\bachmaer\downloads\glm-0.9.9.0\glm\glm\detail\type_vec4.inl

; 192  : 		: x(_x), y(_y), z(_z), w(_w)

	addsd	xmm2, xmm0
; File c:\users\bachmaer\downloads\glm-0.9.9.0\glm\glm\gtc\quaternion.inl

; 19   : 			vec<4, T, Q> tmp(a.x * b.x, a.y * b.y, a.z * b.z, a.w * b.w);

	movsd	xmm0, QWORD PTR [ecx]
	mulsd	xmm0, QWORD PTR [eax]

; 20   : 			return (tmp.x + tmp.y) + (tmp.z + tmp.w);

	addsd	xmm1, xmm0
	addsd	xmm2, xmm1

; 393  : 		GLM_STATIC_ASSERT(std::numeric_limits<T>::is_iec559, "'dot' accepts only floating-point inputs");
; 394  : 		return detail::compute_dot<tquat<T, Q>, T, detail::is_aligned<Q>::value>::call(x, y);

	movsd	QWORD PTR tv175[ebp], xmm2
	fld	QWORD PTR tv175[ebp]

; 395  : 	}

	mov	esp, ebp
	pop	ebp
	ret	0
??$dot@N$00@glm@@YANABU?$tquat@N$00@0@0@Z ENDP		; glm::dot<double,1>
_TEXT	ENDS
; Function compile flags: /Ogtp
; File c:\users\bachmaer\downloads\glm-0.9.9.0\glm\glm\gtc\quaternion.inl
; File c:\users\bachmaer\downloads\glm-0.9.9.0\glm\glm\detail\type_vec4.inl
; File c:\users\bachmaer\downloads\glm-0.9.9.0\glm\glm\gtc\quaternion.inl
;	COMDAT ??$dot@N$01@glm@@YANABU?$tquat@N$01@0@0@Z
_TEXT	SEGMENT
tv175 = -8						; size = 8
_x$ = 8							; size = 4
_y$ = 12						; size = 4
??$dot@N$01@glm@@YANABU?$tquat@N$01@0@0@Z PROC		; glm::dot<double,2>, COMDAT

; 392  : 	{

	push	ebp
	mov	ebp, esp
	sub	esp, 8

; 19   : 			vec<4, T, Q> tmp(a.x * b.x, a.y * b.y, a.z * b.z, a.w * b.w);

	mov	ecx, DWORD PTR _x$[ebp]
	mov	eax, DWORD PTR _y$[ebp]
	movsd	xmm0, QWORD PTR [ecx+16]
	movsd	xmm2, QWORD PTR [ecx+24]
	mulsd	xmm0, QWORD PTR [eax+16]
	mulsd	xmm2, QWORD PTR [eax+24]
	movsd	xmm1, QWORD PTR [ecx+8]
	mulsd	xmm1, QWORD PTR [eax+8]
; File c:\users\bachmaer\downloads\glm-0.9.9.0\glm\glm\detail\type_vec4.inl

; 192  : 		: x(_x), y(_y), z(_z), w(_w)

	addsd	xmm2, xmm0
; File c:\users\bachmaer\downloads\glm-0.9.9.0\glm\glm\gtc\quaternion.inl

; 19   : 			vec<4, T, Q> tmp(a.x * b.x, a.y * b.y, a.z * b.z, a.w * b.w);

	movsd	xmm0, QWORD PTR [ecx]
	mulsd	xmm0, QWORD PTR [eax]

; 20   : 			return (tmp.x + tmp.y) + (tmp.z + tmp.w);

	addsd	xmm1, xmm0
	addsd	xmm2, xmm1

; 393  : 		GLM_STATIC_ASSERT(std::numeric_limits<T>::is_iec559, "'dot' accepts only floating-point inputs");
; 394  : 		return detail::compute_dot<tquat<T, Q>, T, detail::is_aligned<Q>::value>::call(x, y);

	movsd	QWORD PTR tv175[ebp], xmm2
	fld	QWORD PTR tv175[ebp]

; 395  : 	}

	mov	esp, ebp
	pop	ebp
	ret	0
??$dot@N$01@glm@@YANABU?$tquat@N$01@0@0@Z ENDP		; glm::dot<double,2>
_TEXT	ENDS
; Function compile flags: /Ogtp
; File c:\users\bachmaer\downloads\glm-0.9.9.0\glm\glm\gtc\quaternion.inl
; File c:\users\bachmaer\downloads\glm-0.9.9.0\glm\glm\detail\type_vec4.inl
; File c:\users\bachmaer\downloads\glm-0.9.9.0\glm\glm\gtc\quaternion.inl
;	COMDAT ??$dot@M$0A@@glm@@YAMABU?$tquat@M$0A@@0@0@Z
_TEXT	SEGMENT
tv175 = 8						; size = 4
_x$ = 8							; size = 4
_y$ = 12						; size = 4
??$dot@M$0A@@glm@@YAMABU?$tquat@M$0A@@0@0@Z PROC	; glm::dot<float,0>, COMDAT

; 392  : 	{

	push	ebp
	mov	ebp, esp

; 19   : 			vec<4, T, Q> tmp(a.x * b.x, a.y * b.y, a.z * b.z, a.w * b.w);

	mov	ecx, DWORD PTR _x$[ebp]
	mov	eax, DWORD PTR _y$[ebp]
	movss	xmm0, DWORD PTR [ecx+8]
	movss	xmm2, DWORD PTR [ecx+12]
	mulss	xmm0, DWORD PTR [eax+8]
	mulss	xmm2, DWORD PTR [eax+12]
	movss	xmm1, DWORD PTR [ecx+4]
	mulss	xmm1, DWORD PTR [eax+4]
; File c:\users\bachmaer\downloads\glm-0.9.9.0\glm\glm\detail\type_vec4.inl

; 192  : 		: x(_x), y(_y), z(_z), w(_w)

	addss	xmm2, xmm0
; File c:\users\bachmaer\downloads\glm-0.9.9.0\glm\glm\gtc\quaternion.inl

; 19   : 			vec<4, T, Q> tmp(a.x * b.x, a.y * b.y, a.z * b.z, a.w * b.w);

	movss	xmm0, DWORD PTR [ecx]
	mulss	xmm0, DWORD PTR [eax]

; 20   : 			return (tmp.x + tmp.y) + (tmp.z + tmp.w);

	addss	xmm1, xmm0
	addss	xmm2, xmm1

; 393  : 		GLM_STATIC_ASSERT(std::numeric_limits<T>::is_iec559, "'dot' accepts only floating-point inputs");
; 394  : 		return detail::compute_dot<tquat<T, Q>, T, detail::is_aligned<Q>::value>::call(x, y);

	movss	DWORD PTR tv175[ebp], xmm2
	fld	DWORD PTR tv175[ebp]

; 395  : 	}

	pop	ebp
	ret	0
??$dot@M$0A@@glm@@YAMABU?$tquat@M$0A@@0@0@Z ENDP	; glm::dot<float,0>
_TEXT	ENDS
; Function compile flags: /Ogtp
; File c:\users\bachmaer\downloads\glm-0.9.9.0\glm\glm\gtc\quaternion.inl
; File c:\users\bachmaer\downloads\glm-0.9.9.0\glm\glm\detail\type_vec4.inl
; File c:\users\bachmaer\downloads\glm-0.9.9.0\glm\glm\gtc\quaternion.inl
;	COMDAT ??$dot@M$00@glm@@YAMABU?$tquat@M$00@0@0@Z
_TEXT	SEGMENT
tv175 = 8						; size = 4
_x$ = 8							; size = 4
_y$ = 12						; size = 4
??$dot@M$00@glm@@YAMABU?$tquat@M$00@0@0@Z PROC		; glm::dot<float,1>, COMDAT

; 392  : 	{

	push	ebp
	mov	ebp, esp

; 19   : 			vec<4, T, Q> tmp(a.x * b.x, a.y * b.y, a.z * b.z, a.w * b.w);

	mov	ecx, DWORD PTR _x$[ebp]
	mov	eax, DWORD PTR _y$[ebp]
	movss	xmm0, DWORD PTR [ecx+8]
	movss	xmm2, DWORD PTR [ecx+12]
	mulss	xmm0, DWORD PTR [eax+8]
	mulss	xmm2, DWORD PTR [eax+12]
	movss	xmm1, DWORD PTR [ecx+4]
	mulss	xmm1, DWORD PTR [eax+4]
; File c:\users\bachmaer\downloads\glm-0.9.9.0\glm\glm\detail\type_vec4.inl

; 192  : 		: x(_x), y(_y), z(_z), w(_w)

	addss	xmm2, xmm0
; File c:\users\bachmaer\downloads\glm-0.9.9.0\glm\glm\gtc\quaternion.inl

; 19   : 			vec<4, T, Q> tmp(a.x * b.x, a.y * b.y, a.z * b.z, a.w * b.w);

	movss	xmm0, DWORD PTR [ecx]
	mulss	xmm0, DWORD PTR [eax]

; 20   : 			return (tmp.x + tmp.y) + (tmp.z + tmp.w);

	addss	xmm1, xmm0
	addss	xmm2, xmm1

; 393  : 		GLM_STATIC_ASSERT(std::numeric_limits<T>::is_iec559, "'dot' accepts only floating-point inputs");
; 394  : 		return detail::compute_dot<tquat<T, Q>, T, detail::is_aligned<Q>::value>::call(x, y);

	movss	DWORD PTR tv175[ebp], xmm2
	fld	DWORD PTR tv175[ebp]

; 395  : 	}

	pop	ebp
	ret	0
??$dot@M$00@glm@@YAMABU?$tquat@M$00@0@0@Z ENDP		; glm::dot<float,1>
_TEXT	ENDS
; Function compile flags: /Ogtp
; File c:\users\bachmaer\downloads\glm-0.9.9.0\glm\glm\gtc\quaternion.inl
; File c:\users\bachmaer\downloads\glm-0.9.9.0\glm\glm\detail\type_vec4.inl
; File c:\users\bachmaer\downloads\glm-0.9.9.0\glm\glm\gtc\quaternion.inl
;	COMDAT ??$dot@M$01@glm@@YAMABU?$tquat@M$01@0@0@Z
_TEXT	SEGMENT
tv175 = 8						; size = 4
_x$ = 8							; size = 4
_y$ = 12						; size = 4
??$dot@M$01@glm@@YAMABU?$tquat@M$01@0@0@Z PROC		; glm::dot<float,2>, COMDAT

; 392  : 	{

	push	ebp
	mov	ebp, esp

; 19   : 			vec<4, T, Q> tmp(a.x * b.x, a.y * b.y, a.z * b.z, a.w * b.w);

	mov	ecx, DWORD PTR _x$[ebp]
	mov	eax, DWORD PTR _y$[ebp]
	movss	xmm0, DWORD PTR [ecx+8]
	movss	xmm2, DWORD PTR [ecx+12]
	mulss	xmm0, DWORD PTR [eax+8]
	mulss	xmm2, DWORD PTR [eax+12]
	movss	xmm1, DWORD PTR [ecx+4]
	mulss	xmm1, DWORD PTR [eax+4]
; File c:\users\bachmaer\downloads\glm-0.9.9.0\glm\glm\detail\type_vec4.inl

; 192  : 		: x(_x), y(_y), z(_z), w(_w)

	addss	xmm2, xmm0
; File c:\users\bachmaer\downloads\glm-0.9.9.0\glm\glm\gtc\quaternion.inl

; 19   : 			vec<4, T, Q> tmp(a.x * b.x, a.y * b.y, a.z * b.z, a.w * b.w);

	movss	xmm0, DWORD PTR [ecx]
	mulss	xmm0, DWORD PTR [eax]

; 20   : 			return (tmp.x + tmp.y) + (tmp.z + tmp.w);

	addss	xmm1, xmm0
	addss	xmm2, xmm1

; 393  : 		GLM_STATIC_ASSERT(std::numeric_limits<T>::is_iec559, "'dot' accepts only floating-point inputs");
; 394  : 		return detail::compute_dot<tquat<T, Q>, T, detail::is_aligned<Q>::value>::call(x, y);

	movss	DWORD PTR tv175[ebp], xmm2
	fld	DWORD PTR tv175[ebp]

; 395  : 	}

	pop	ebp
	ret	0
??$dot@M$01@glm@@YAMABU?$tquat@M$01@0@0@Z ENDP		; glm::dot<float,2>
_TEXT	ENDS
; Function compile flags: /Ogtp
; File c:\users\bachmaer\downloads\glm-0.9.9.0\glm\glm\detail\type_vec3.inl
;	COMDAT ??$?DM$01@glm@@YA?AU?$vec@$02M$01@0@ABU10@0@Z
_TEXT	SEGMENT
___$ReturnUdt$ = 8					; size = 4
_v1$ = 12						; size = 4
_v2$ = 16						; size = 4
??$?DM$01@glm@@YA?AU?$vec@$02M$01@0@ABU10@0@Z PROC	; glm::operator*<float,2>, COMDAT

; 634  : 	{

	push	ebp
	mov	ebp, esp

; 635  : 		return vec<3, T, Q>(

	mov	edx, DWORD PTR _v1$[ebp]
	mov	ecx, DWORD PTR _v2$[ebp]

; 39   : 		: x(_x), y(_y), z(_z)

	mov	eax, DWORD PTR ___$ReturnUdt$[ebp]

; 635  : 		return vec<3, T, Q>(

	movss	xmm0, DWORD PTR [edx]
	mulss	xmm0, DWORD PTR [ecx]

; 39   : 		: x(_x), y(_y), z(_z)

	movss	DWORD PTR [eax], xmm0

; 635  : 		return vec<3, T, Q>(

	movss	xmm0, DWORD PTR [edx+4]
	mulss	xmm0, DWORD PTR [ecx+4]

; 39   : 		: x(_x), y(_y), z(_z)

	movss	DWORD PTR [eax+4], xmm0

; 635  : 		return vec<3, T, Q>(

	movss	xmm0, DWORD PTR [edx+8]
	mulss	xmm0, DWORD PTR [ecx+8]

; 39   : 		: x(_x), y(_y), z(_z)

	movss	DWORD PTR [eax+8], xmm0

; 636  : 			v1.x * v2.x,
; 637  : 			v1.y * v2.y,
; 638  : 			v1.z * v2.z);
; 639  : 	}

	pop	ebp
	ret	0
??$?DM$01@glm@@YA?AU?$vec@$02M$01@0@ABU10@0@Z ENDP	; glm::operator*<float,2>
_TEXT	ENDS
; Function compile flags: /Ogtp
; File c:\users\bachmaer\downloads\glm-0.9.9.0\glm\glm\detail\type_vec3.inl
;	COMDAT ??$?DM$00@glm@@YA?AU?$vec@$02M$00@0@ABU10@0@Z
_TEXT	SEGMENT
___$ReturnUdt$ = 8					; size = 4
_v1$ = 12						; size = 4
_v2$ = 16						; size = 4
??$?DM$00@glm@@YA?AU?$vec@$02M$00@0@ABU10@0@Z PROC	; glm::operator*<float,1>, COMDAT

; 634  : 	{

	push	ebp
	mov	ebp, esp

; 635  : 		return vec<3, T, Q>(

	mov	edx, DWORD PTR _v1$[ebp]
	mov	ecx, DWORD PTR _v2$[ebp]

; 39   : 		: x(_x), y(_y), z(_z)

	mov	eax, DWORD PTR ___$ReturnUdt$[ebp]

; 635  : 		return vec<3, T, Q>(

	movss	xmm0, DWORD PTR [edx]
	mulss	xmm0, DWORD PTR [ecx]

; 39   : 		: x(_x), y(_y), z(_z)

	movss	DWORD PTR [eax], xmm0

; 635  : 		return vec<3, T, Q>(

	movss	xmm0, DWORD PTR [edx+4]
	mulss	xmm0, DWORD PTR [ecx+4]

; 39   : 		: x(_x), y(_y), z(_z)

	movss	DWORD PTR [eax+4], xmm0

; 635  : 		return vec<3, T, Q>(

	movss	xmm0, DWORD PTR [edx+8]
	mulss	xmm0, DWORD PTR [ecx+8]

; 39   : 		: x(_x), y(_y), z(_z)

	movss	DWORD PTR [eax+8], xmm0

; 636  : 			v1.x * v2.x,
; 637  : 			v1.y * v2.y,
; 638  : 			v1.z * v2.z);
; 639  : 	}

	pop	ebp
	ret	0
??$?DM$00@glm@@YA?AU?$vec@$02M$00@0@ABU10@0@Z ENDP	; glm::operator*<float,1>
_TEXT	ENDS
; Function compile flags: /Ogtp
; File c:\users\bachmaer\downloads\glm-0.9.9.0\glm\glm\detail\type_vec3.inl
;	COMDAT ??$?DM$0A@@glm@@YA?AU?$vec@$02M$0A@@0@ABU10@0@Z
_TEXT	SEGMENT
___$ReturnUdt$ = 8					; size = 4
_v1$ = 12						; size = 4
_v2$ = 16						; size = 4
??$?DM$0A@@glm@@YA?AU?$vec@$02M$0A@@0@ABU10@0@Z PROC	; glm::operator*<float,0>, COMDAT

; 634  : 	{

	push	ebp
	mov	ebp, esp

; 635  : 		return vec<3, T, Q>(

	mov	edx, DWORD PTR _v1$[ebp]
	mov	ecx, DWORD PTR _v2$[ebp]

; 39   : 		: x(_x), y(_y), z(_z)

	mov	eax, DWORD PTR ___$ReturnUdt$[ebp]

; 635  : 		return vec<3, T, Q>(

	movss	xmm0, DWORD PTR [edx]
	mulss	xmm0, DWORD PTR [ecx]

; 39   : 		: x(_x), y(_y), z(_z)

	movss	DWORD PTR [eax], xmm0

; 635  : 		return vec<3, T, Q>(

	movss	xmm0, DWORD PTR [edx+4]
	mulss	xmm0, DWORD PTR [ecx+4]

; 39   : 		: x(_x), y(_y), z(_z)

	movss	DWORD PTR [eax+4], xmm0

; 635  : 		return vec<3, T, Q>(

	movss	xmm0, DWORD PTR [edx+8]
	mulss	xmm0, DWORD PTR [ecx+8]

; 39   : 		: x(_x), y(_y), z(_z)

	movss	DWORD PTR [eax+8], xmm0

; 636  : 			v1.x * v2.x,
; 637  : 			v1.y * v2.y,
; 638  : 			v1.z * v2.z);
; 639  : 	}

	pop	ebp
	ret	0
??$?DM$0A@@glm@@YA?AU?$vec@$02M$0A@@0@ABU10@0@Z ENDP	; glm::operator*<float,0>
_TEXT	ENDS
; Function compile flags: /Ogtp
; File c:\users\bachmaer\downloads\glm-0.9.9.0\glm\glm\detail\type_vec3.inl
;	COMDAT ??$?DN$01@glm@@YA?AU?$vec@$02N$01@0@ABU10@0@Z
_TEXT	SEGMENT
___$ReturnUdt$ = 8					; size = 4
_v1$ = 12						; size = 4
_v2$ = 16						; size = 4
??$?DN$01@glm@@YA?AU?$vec@$02N$01@0@ABU10@0@Z PROC	; glm::operator*<double,2>, COMDAT

; 634  : 	{

	push	ebp
	mov	ebp, esp

; 635  : 		return vec<3, T, Q>(

	mov	edx, DWORD PTR _v1$[ebp]
	mov	ecx, DWORD PTR _v2$[ebp]

; 39   : 		: x(_x), y(_y), z(_z)

	mov	eax, DWORD PTR ___$ReturnUdt$[ebp]

; 635  : 		return vec<3, T, Q>(

	movsd	xmm0, QWORD PTR [edx]
	mulsd	xmm0, QWORD PTR [ecx]

; 39   : 		: x(_x), y(_y), z(_z)

	movsd	QWORD PTR [eax], xmm0

; 635  : 		return vec<3, T, Q>(

	movsd	xmm0, QWORD PTR [edx+8]
	mulsd	xmm0, QWORD PTR [ecx+8]

; 39   : 		: x(_x), y(_y), z(_z)

	movsd	QWORD PTR [eax+8], xmm0

; 635  : 		return vec<3, T, Q>(

	movsd	xmm0, QWORD PTR [edx+16]
	mulsd	xmm0, QWORD PTR [ecx+16]

; 39   : 		: x(_x), y(_y), z(_z)

	movsd	QWORD PTR [eax+16], xmm0

; 636  : 			v1.x * v2.x,
; 637  : 			v1.y * v2.y,
; 638  : 			v1.z * v2.z);
; 639  : 	}

	pop	ebp
	ret	0
??$?DN$01@glm@@YA?AU?$vec@$02N$01@0@ABU10@0@Z ENDP	; glm::operator*<double,2>
_TEXT	ENDS
; Function compile flags: /Ogtp
; File c:\users\bachmaer\downloads\glm-0.9.9.0\glm\glm\detail\type_vec3.inl
;	COMDAT ??$?DN$00@glm@@YA?AU?$vec@$02N$00@0@ABU10@0@Z
_TEXT	SEGMENT
___$ReturnUdt$ = 8					; size = 4
_v1$ = 12						; size = 4
_v2$ = 16						; size = 4
??$?DN$00@glm@@YA?AU?$vec@$02N$00@0@ABU10@0@Z PROC	; glm::operator*<double,1>, COMDAT

; 634  : 	{

	push	ebp
	mov	ebp, esp

; 635  : 		return vec<3, T, Q>(

	mov	edx, DWORD PTR _v1$[ebp]
	mov	ecx, DWORD PTR _v2$[ebp]

; 39   : 		: x(_x), y(_y), z(_z)

	mov	eax, DWORD PTR ___$ReturnUdt$[ebp]

; 635  : 		return vec<3, T, Q>(

	movsd	xmm0, QWORD PTR [edx]
	mulsd	xmm0, QWORD PTR [ecx]

; 39   : 		: x(_x), y(_y), z(_z)

	movsd	QWORD PTR [eax], xmm0

; 635  : 		return vec<3, T, Q>(

	movsd	xmm0, QWORD PTR [edx+8]
	mulsd	xmm0, QWORD PTR [ecx+8]

; 39   : 		: x(_x), y(_y), z(_z)

	movsd	QWORD PTR [eax+8], xmm0

; 635  : 		return vec<3, T, Q>(

	movsd	xmm0, QWORD PTR [edx+16]
	mulsd	xmm0, QWORD PTR [ecx+16]

; 39   : 		: x(_x), y(_y), z(_z)

	movsd	QWORD PTR [eax+16], xmm0

; 636  : 			v1.x * v2.x,
; 637  : 			v1.y * v2.y,
; 638  : 			v1.z * v2.z);
; 639  : 	}

	pop	ebp
	ret	0
??$?DN$00@glm@@YA?AU?$vec@$02N$00@0@ABU10@0@Z ENDP	; glm::operator*<double,1>
_TEXT	ENDS
; Function compile flags: /Ogtp
; File c:\users\bachmaer\downloads\glm-0.9.9.0\glm\glm\detail\type_vec3.inl
;	COMDAT ??$?DN$0A@@glm@@YA?AU?$vec@$02N$0A@@0@ABU10@0@Z
_TEXT	SEGMENT
___$ReturnUdt$ = 8					; size = 4
_v1$ = 12						; size = 4
_v2$ = 16						; size = 4
??$?DN$0A@@glm@@YA?AU?$vec@$02N$0A@@0@ABU10@0@Z PROC	; glm::operator*<double,0>, COMDAT

; 634  : 	{

	push	ebp
	mov	ebp, esp

; 635  : 		return vec<3, T, Q>(

	mov	edx, DWORD PTR _v1$[ebp]
	mov	ecx, DWORD PTR _v2$[ebp]

; 39   : 		: x(_x), y(_y), z(_z)

	mov	eax, DWORD PTR ___$ReturnUdt$[ebp]

; 635  : 		return vec<3, T, Q>(

	movsd	xmm0, QWORD PTR [edx]
	mulsd	xmm0, QWORD PTR [ecx]

; 39   : 		: x(_x), y(_y), z(_z)

	movsd	QWORD PTR [eax], xmm0

; 635  : 		return vec<3, T, Q>(

	movsd	xmm0, QWORD PTR [edx+8]
	mulsd	xmm0, QWORD PTR [ecx+8]

; 39   : 		: x(_x), y(_y), z(_z)

	movsd	QWORD PTR [eax+8], xmm0

; 635  : 		return vec<3, T, Q>(

	movsd	xmm0, QWORD PTR [edx+16]
	mulsd	xmm0, QWORD PTR [ecx+16]

; 39   : 		: x(_x), y(_y), z(_z)

	movsd	QWORD PTR [eax+16], xmm0

; 636  : 			v1.x * v2.x,
; 637  : 			v1.y * v2.y,
; 638  : 			v1.z * v2.z);
; 639  : 	}

	pop	ebp
	ret	0
??$?DN$0A@@glm@@YA?AU?$vec@$02N$0A@@0@ABU10@0@Z ENDP	; glm::operator*<double,0>
_TEXT	ENDS
; Function compile flags: /Ogtp
; File c:\users\bachmaer\downloads\glm-0.9.9.0\glm\glm\gtc\quaternion.inl
; File c:\users\bachmaer\downloads\glm-0.9.9.0\glm\glm\detail\type_vec4.inl
; File c:\users\bachmaer\downloads\glm-0.9.9.0\glm\glm\gtc\quaternion.inl
;	COMDAT ??$length@N$0A@@glm@@YANABU?$tquat@N$0A@@0@@Z
_TEXT	SEGMENT
tv205 = -8						; size = 8
_q$ = 8							; size = 4
??$length@N$0A@@glm@@YANABU?$tquat@N$0A@@0@@Z PROC	; glm::length<double,0>, COMDAT

; 399  : 	{

	push	ebp
	mov	ebp, esp
	and	esp, -8					; fffffff8H
	sub	esp, 8

; 19   : 			vec<4, T, Q> tmp(a.x * b.x, a.y * b.y, a.z * b.z, a.w * b.w);

	mov	eax, DWORD PTR _q$[ebp]
	movsd	xmm3, QWORD PTR [eax]
	movsd	xmm2, QWORD PTR [eax+8]
	movsd	xmm1, QWORD PTR [eax+16]
	movsd	xmm0, QWORD PTR [eax+24]
	mulsd	xmm0, xmm0
	mulsd	xmm1, xmm1
	mulsd	xmm2, xmm2
	mulsd	xmm3, xmm3
; File c:\users\bachmaer\downloads\glm-0.9.9.0\glm\glm\detail\type_vec4.inl

; 192  : 		: x(_x), y(_y), z(_z), w(_w)

	addsd	xmm0, xmm1
; File c:\users\bachmaer\downloads\glm-0.9.9.0\glm\glm\gtc\quaternion.inl

; 20   : 			return (tmp.x + tmp.y) + (tmp.z + tmp.w);

	addsd	xmm2, xmm3
	addsd	xmm0, xmm2

; 400  : 		return glm::sqrt(dot(q, q));

	call	__libm_sse2_sqrt_precise
	movsd	QWORD PTR tv205[esp+8], xmm0
	fld	QWORD PTR tv205[esp+8]

; 401  : 	}

	mov	esp, ebp
	pop	ebp
	ret	0
??$length@N$0A@@glm@@YANABU?$tquat@N$0A@@0@@Z ENDP	; glm::length<double,0>
_TEXT	ENDS
; Function compile flags: /Ogtp
; File c:\users\bachmaer\downloads\glm-0.9.9.0\glm\glm\detail\func_geometric.inl
; File c:\users\bachmaer\downloads\glm-0.9.9.0\glm\glm\detail\type_vec3.inl
; File c:\users\bachmaer\downloads\glm-0.9.9.0\glm\glm\detail\func_geometric.inl
; File c:\users\bachmaer\downloads\glm-0.9.9.0\glm\glm\detail\type_vec3.inl
; File c:\users\bachmaer\downloads\glm-0.9.9.0\glm\glm\detail\func_geometric.inl
; File c:\users\bachmaer\downloads\glm-0.9.9.0\glm\glm\detail\type_vec3.inl
; File c:\users\bachmaer\downloads\glm-0.9.9.0\glm\glm\detail\func_geometric.inl
;	COMDAT ?call@?$compute_cross@N$0A@$0A@@detail@glm@@SA?AU?$vec@$02N$0A@@3@ABU43@0@Z
_TEXT	SEGMENT
___$ReturnUdt$ = 8					; size = 4
_x$ = 12						; size = 4
_y$ = 16						; size = 4
?call@?$compute_cross@N$0A@$0A@@detail@glm@@SA?AU?$vec@$02N$0A@@3@ABU43@0@Z PROC ; glm::detail::compute_cross<double,0,0>::call, COMDAT

; 77   : 		{

	push	ebp
	mov	ebp, esp

; 80   : 			return vec<3, T, Q>(

	mov	eax, DWORD PTR _y$[ebp]
	mov	edx, DWORD PTR _x$[ebp]
; File c:\users\bachmaer\downloads\glm-0.9.9.0\glm\glm\detail\type_vec3.inl

; 39   : 		: x(_x), y(_y), z(_z)

	mov	ecx, DWORD PTR ___$ReturnUdt$[ebp]
; File c:\users\bachmaer\downloads\glm-0.9.9.0\glm\glm\detail\func_geometric.inl

; 80   : 			return vec<3, T, Q>(

	movsd	xmm1, QWORD PTR [eax+16]
	movsd	xmm0, QWORD PTR [eax+8]
	mulsd	xmm1, QWORD PTR [edx+8]
	mulsd	xmm0, QWORD PTR [edx+16]
	movsd	xmm3, QWORD PTR [eax]
	movsd	xmm2, QWORD PTR [edx]
	subsd	xmm1, xmm0
	movaps	xmm0, xmm2
	mulsd	xmm0, QWORD PTR [eax+16]
	mulsd	xmm2, QWORD PTR [eax+8]
	mov	eax, ecx
; File c:\users\bachmaer\downloads\glm-0.9.9.0\glm\glm\detail\type_vec3.inl

; 39   : 		: x(_x), y(_y), z(_z)

	movsd	QWORD PTR [ecx], xmm1
; File c:\users\bachmaer\downloads\glm-0.9.9.0\glm\glm\detail\func_geometric.inl

; 80   : 			return vec<3, T, Q>(

	movaps	xmm1, xmm3
	mulsd	xmm1, QWORD PTR [edx+16]
	mulsd	xmm3, QWORD PTR [edx+8]
	subsd	xmm1, xmm0
	subsd	xmm2, xmm3
; File c:\users\bachmaer\downloads\glm-0.9.9.0\glm\glm\detail\type_vec3.inl

; 39   : 		: x(_x), y(_y), z(_z)

	movsd	QWORD PTR [ecx+8], xmm1
	movsd	QWORD PTR [ecx+16], xmm2
; File c:\users\bachmaer\downloads\glm-0.9.9.0\glm\glm\detail\func_geometric.inl

; 84   : 		}

	pop	ebp
	ret	0
?call@?$compute_cross@N$0A@$0A@@detail@glm@@SA?AU?$vec@$02N$0A@@3@ABU43@0@Z ENDP ; glm::detail::compute_cross<double,0,0>::call
_TEXT	ENDS
; Function compile flags: /Ogtp
; File c:\users\bachmaer\downloads\glm-0.9.9.0\glm\glm\detail\func_geometric.inl
; File c:\users\bachmaer\downloads\glm-0.9.9.0\glm\glm\detail\type_vec3.inl
; File c:\users\bachmaer\downloads\glm-0.9.9.0\glm\glm\detail\func_geometric.inl
;	COMDAT ?call@?$compute_dot@U?$vec@$02N$0A@@glm@@N$0A@@detail@glm@@SANABU?$vec@$02N$0A@@3@0@Z
_TEXT	SEGMENT
_a$ = 8							; size = 4
_b$ = 12						; size = 4
?call@?$compute_dot@U?$vec@$02N$0A@@glm@@N$0A@@detail@glm@@SANABU?$vec@$02N$0A@@3@0@Z PROC ; glm::detail::compute_dot<glm::vec<3,double,0>,double,0>::call, COMDAT

; 57   : 		{

	push	ebp
	mov	ebp, esp
; File c:\users\bachmaer\downloads\glm-0.9.9.0\glm\glm\detail\type_vec3.inl

; 635  : 		return vec<3, T, Q>(

	mov	ecx, DWORD PTR _a$[ebp]
	mov	eax, DWORD PTR _b$[ebp]
	fld	QWORD PTR [ecx+8]
	fmul	QWORD PTR [eax+8]
	fld	QWORD PTR [ecx]
	fmul	QWORD PTR [eax]

; 39   : 		: x(_x), y(_y), z(_z)

	faddp	ST(1), ST(0)

; 635  : 		return vec<3, T, Q>(

	fld	QWORD PTR [ecx+16]
	fmul	QWORD PTR [eax+16]
; File c:\users\bachmaer\downloads\glm-0.9.9.0\glm\glm\detail\func_geometric.inl

; 59   : 			return tmp.x + tmp.y + tmp.z;

	faddp	ST(1), ST(0)

; 60   : 		}

	pop	ebp
	ret	0
?call@?$compute_dot@U?$vec@$02N$0A@@glm@@N$0A@@detail@glm@@SANABU?$vec@$02N$0A@@3@0@Z ENDP ; glm::detail::compute_dot<glm::vec<3,double,0>,double,0>::call
_TEXT	ENDS
; Function compile flags: /Ogtp
; File c:\users\bachmaer\downloads\glm-0.9.9.0\glm\glm\detail\_vectorize.hpp
; File c:\users\bachmaer\downloads\glm-0.9.9.0\glm\glm\detail\type_vec3.inl
; File c:\users\bachmaer\downloads\glm-0.9.9.0\glm\glm\detail\_vectorize.hpp
; File c:\users\bachmaer\downloads\glm-0.9.9.0\glm\glm\detail\type_vec3.inl
; File c:\users\bachmaer\downloads\glm-0.9.9.0\glm\glm\detail\_vectorize.hpp
; File c:\users\bachmaer\downloads\glm-0.9.9.0\glm\glm\detail\type_vec3.inl
; File c:\users\bachmaer\downloads\glm-0.9.9.0\glm\glm\detail\_vectorize.hpp
;	COMDAT ?call@?$functor1@$02NN$0A@@detail@glm@@SA?AU?$vec@$02N$0A@@3@P6ANN@ZABU43@@Z
_TEXT	SEGMENT
__z$ = -24						; size = 8
__y$ = -16						; size = 8
__x$ = -8						; size = 8
___$ReturnUdt$ = 8					; size = 4
_Func$ = 12						; size = 4
_v$ = 16						; size = 4
?call@?$functor1@$02NN$0A@@detail@glm@@SA?AU?$vec@$02N$0A@@3@P6ANN@ZABU43@@Z PROC ; glm::detail::functor1<3,double,double,0>::call, COMDAT

; 39   : 		{

	push	ebp
	mov	ebp, esp
	sub	esp, 24					; 00000018H
	push	esi

; 40   : 			return vec<3, R, Q>(Func(v.x), Func(v.y), Func(v.z));

	mov	esi, DWORD PTR _v$[ebp]
	sub	esp, 8
	movsd	xmm0, QWORD PTR [esi]
	movsd	QWORD PTR [esp], xmm0
	call	DWORD PTR _Func$[ebp]
	movsd	xmm0, QWORD PTR [esi+8]
	fstp	QWORD PTR __x$[ebp]
	movsd	QWORD PTR [esp], xmm0
	call	DWORD PTR _Func$[ebp]
	movsd	xmm0, QWORD PTR [esi+16]
	fstp	QWORD PTR __y$[ebp]
	movsd	QWORD PTR [esp], xmm0
	call	DWORD PTR _Func$[ebp]
; File c:\users\bachmaer\downloads\glm-0.9.9.0\glm\glm\detail\type_vec3.inl

; 39   : 		: x(_x), y(_y), z(_z)

	mov	eax, DWORD PTR ___$ReturnUdt$[ebp]
; File c:\users\bachmaer\downloads\glm-0.9.9.0\glm\glm\detail\_vectorize.hpp

; 40   : 			return vec<3, R, Q>(Func(v.x), Func(v.y), Func(v.z));

	add	esp, 8
; File c:\users\bachmaer\downloads\glm-0.9.9.0\glm\glm\detail\type_vec3.inl

; 39   : 		: x(_x), y(_y), z(_z)

	movsd	xmm0, QWORD PTR __x$[ebp]
; File c:\users\bachmaer\downloads\glm-0.9.9.0\glm\glm\detail\_vectorize.hpp

; 40   : 			return vec<3, R, Q>(Func(v.x), Func(v.y), Func(v.z));

	fstp	QWORD PTR __z$[ebp]
; File c:\users\bachmaer\downloads\glm-0.9.9.0\glm\glm\detail\type_vec3.inl

; 39   : 		: x(_x), y(_y), z(_z)

	movsd	QWORD PTR [eax], xmm0
	movsd	xmm0, QWORD PTR __y$[ebp]
	movsd	QWORD PTR [eax+8], xmm0
	movsd	xmm0, QWORD PTR __z$[ebp]
	movsd	QWORD PTR [eax+16], xmm0
; File c:\users\bachmaer\downloads\glm-0.9.9.0\glm\glm\detail\_vectorize.hpp

; 40   : 			return vec<3, R, Q>(Func(v.x), Func(v.y), Func(v.z));

	pop	esi

; 41   : 		}

	mov	esp, ebp
	pop	ebp
	ret	0
?call@?$functor1@$02NN$0A@@detail@glm@@SA?AU?$vec@$02N$0A@@3@P6ANN@ZABU43@@Z ENDP ; glm::detail::functor1<3,double,double,0>::call
_TEXT	ENDS
; Function compile flags: /Ogtp
; File c:\users\bachmaer\downloads\glm-0.9.9.0\glm\glm\gtc\quaternion.inl
; File c:\users\bachmaer\downloads\glm-0.9.9.0\glm\glm\detail\type_vec4.inl
; File c:\users\bachmaer\downloads\glm-0.9.9.0\glm\glm\gtc\quaternion.inl
;	COMDAT ??$length@N$00@glm@@YANABU?$tquat@N$00@0@@Z
_TEXT	SEGMENT
tv205 = -8						; size = 8
_q$ = 8							; size = 4
??$length@N$00@glm@@YANABU?$tquat@N$00@0@@Z PROC	; glm::length<double,1>, COMDAT

; 399  : 	{

	push	ebp
	mov	ebp, esp
	and	esp, -8					; fffffff8H
	sub	esp, 8

; 19   : 			vec<4, T, Q> tmp(a.x * b.x, a.y * b.y, a.z * b.z, a.w * b.w);

	mov	eax, DWORD PTR _q$[ebp]
	movsd	xmm3, QWORD PTR [eax]
	movsd	xmm2, QWORD PTR [eax+8]
	movsd	xmm1, QWORD PTR [eax+16]
	movsd	xmm0, QWORD PTR [eax+24]
	mulsd	xmm0, xmm0
	mulsd	xmm1, xmm1
	mulsd	xmm2, xmm2
	mulsd	xmm3, xmm3
; File c:\users\bachmaer\downloads\glm-0.9.9.0\glm\glm\detail\type_vec4.inl

; 192  : 		: x(_x), y(_y), z(_z), w(_w)

	addsd	xmm0, xmm1
; File c:\users\bachmaer\downloads\glm-0.9.9.0\glm\glm\gtc\quaternion.inl

; 20   : 			return (tmp.x + tmp.y) + (tmp.z + tmp.w);

	addsd	xmm2, xmm3
	addsd	xmm0, xmm2

; 400  : 		return glm::sqrt(dot(q, q));

	call	__libm_sse2_sqrt_precise
	movsd	QWORD PTR tv205[esp+8], xmm0
	fld	QWORD PTR tv205[esp+8]

; 401  : 	}

	mov	esp, ebp
	pop	ebp
	ret	0
??$length@N$00@glm@@YANABU?$tquat@N$00@0@@Z ENDP	; glm::length<double,1>
_TEXT	ENDS
; Function compile flags: /Ogtp
; File c:\users\bachmaer\downloads\glm-0.9.9.0\glm\glm\detail\func_geometric.inl
; File c:\users\bachmaer\downloads\glm-0.9.9.0\glm\glm\detail\type_vec3.inl
; File c:\users\bachmaer\downloads\glm-0.9.9.0\glm\glm\detail\func_geometric.inl
; File c:\users\bachmaer\downloads\glm-0.9.9.0\glm\glm\detail\type_vec3.inl
; File c:\users\bachmaer\downloads\glm-0.9.9.0\glm\glm\detail\func_geometric.inl
; File c:\users\bachmaer\downloads\glm-0.9.9.0\glm\glm\detail\type_vec3.inl
; File c:\users\bachmaer\downloads\glm-0.9.9.0\glm\glm\detail\func_geometric.inl
;	COMDAT ?call@?$compute_cross@N$00$0A@@detail@glm@@SA?AU?$vec@$02N$00@3@ABU43@0@Z
_TEXT	SEGMENT
___$ReturnUdt$ = 8					; size = 4
_x$ = 12						; size = 4
_y$ = 16						; size = 4
?call@?$compute_cross@N$00$0A@@detail@glm@@SA?AU?$vec@$02N$00@3@ABU43@0@Z PROC ; glm::detail::compute_cross<double,1,0>::call, COMDAT

; 77   : 		{

	push	ebp
	mov	ebp, esp

; 80   : 			return vec<3, T, Q>(

	mov	eax, DWORD PTR _y$[ebp]
	mov	edx, DWORD PTR _x$[ebp]
; File c:\users\bachmaer\downloads\glm-0.9.9.0\glm\glm\detail\type_vec3.inl

; 39   : 		: x(_x), y(_y), z(_z)

	mov	ecx, DWORD PTR ___$ReturnUdt$[ebp]
; File c:\users\bachmaer\downloads\glm-0.9.9.0\glm\glm\detail\func_geometric.inl

; 80   : 			return vec<3, T, Q>(

	movsd	xmm1, QWORD PTR [eax+16]
	movsd	xmm0, QWORD PTR [eax+8]
	mulsd	xmm1, QWORD PTR [edx+8]
	mulsd	xmm0, QWORD PTR [edx+16]
	movsd	xmm3, QWORD PTR [eax]
	movsd	xmm2, QWORD PTR [edx]
	subsd	xmm1, xmm0
	movaps	xmm0, xmm2
	mulsd	xmm0, QWORD PTR [eax+16]
	mulsd	xmm2, QWORD PTR [eax+8]
	mov	eax, ecx
; File c:\users\bachmaer\downloads\glm-0.9.9.0\glm\glm\detail\type_vec3.inl

; 39   : 		: x(_x), y(_y), z(_z)

	movsd	QWORD PTR [ecx], xmm1
; File c:\users\bachmaer\downloads\glm-0.9.9.0\glm\glm\detail\func_geometric.inl

; 80   : 			return vec<3, T, Q>(

	movaps	xmm1, xmm3
	mulsd	xmm1, QWORD PTR [edx+16]
	mulsd	xmm3, QWORD PTR [edx+8]
	subsd	xmm1, xmm0
	subsd	xmm2, xmm3
; File c:\users\bachmaer\downloads\glm-0.9.9.0\glm\glm\detail\type_vec3.inl

; 39   : 		: x(_x), y(_y), z(_z)

	movsd	QWORD PTR [ecx+8], xmm1
	movsd	QWORD PTR [ecx+16], xmm2
; File c:\users\bachmaer\downloads\glm-0.9.9.0\glm\glm\detail\func_geometric.inl

; 84   : 		}

	pop	ebp
	ret	0
?call@?$compute_cross@N$00$0A@@detail@glm@@SA?AU?$vec@$02N$00@3@ABU43@0@Z ENDP ; glm::detail::compute_cross<double,1,0>::call
_TEXT	ENDS
; Function compile flags: /Ogtp
; File c:\users\bachmaer\downloads\glm-0.9.9.0\glm\glm\detail\func_geometric.inl
; File c:\users\bachmaer\downloads\glm-0.9.9.0\glm\glm\detail\type_vec3.inl
; File c:\users\bachmaer\downloads\glm-0.9.9.0\glm\glm\detail\func_geometric.inl
;	COMDAT ?call@?$compute_dot@U?$vec@$02N$00@glm@@N$0A@@detail@glm@@SANABU?$vec@$02N$00@3@0@Z
_TEXT	SEGMENT
_a$ = 8							; size = 4
_b$ = 12						; size = 4
?call@?$compute_dot@U?$vec@$02N$00@glm@@N$0A@@detail@glm@@SANABU?$vec@$02N$00@3@0@Z PROC ; glm::detail::compute_dot<glm::vec<3,double,1>,double,0>::call, COMDAT

; 57   : 		{

	push	ebp
	mov	ebp, esp
; File c:\users\bachmaer\downloads\glm-0.9.9.0\glm\glm\detail\type_vec3.inl

; 635  : 		return vec<3, T, Q>(

	mov	ecx, DWORD PTR _a$[ebp]
	mov	eax, DWORD PTR _b$[ebp]
	fld	QWORD PTR [ecx+8]
	fmul	QWORD PTR [eax+8]
	fld	QWORD PTR [ecx]
	fmul	QWORD PTR [eax]

; 39   : 		: x(_x), y(_y), z(_z)

	faddp	ST(1), ST(0)

; 635  : 		return vec<3, T, Q>(

	fld	QWORD PTR [ecx+16]
	fmul	QWORD PTR [eax+16]
; File c:\users\bachmaer\downloads\glm-0.9.9.0\glm\glm\detail\func_geometric.inl

; 59   : 			return tmp.x + tmp.y + tmp.z;

	faddp	ST(1), ST(0)

; 60   : 		}

	pop	ebp
	ret	0
?call@?$compute_dot@U?$vec@$02N$00@glm@@N$0A@@detail@glm@@SANABU?$vec@$02N$00@3@0@Z ENDP ; glm::detail::compute_dot<glm::vec<3,double,1>,double,0>::call
_TEXT	ENDS
; Function compile flags: /Ogtp
; File c:\users\bachmaer\downloads\glm-0.9.9.0\glm\glm\detail\_vectorize.hpp
; File c:\users\bachmaer\downloads\glm-0.9.9.0\glm\glm\detail\type_vec3.inl
; File c:\users\bachmaer\downloads\glm-0.9.9.0\glm\glm\detail\_vectorize.hpp
; File c:\users\bachmaer\downloads\glm-0.9.9.0\glm\glm\detail\type_vec3.inl
; File c:\users\bachmaer\downloads\glm-0.9.9.0\glm\glm\detail\_vectorize.hpp
; File c:\users\bachmaer\downloads\glm-0.9.9.0\glm\glm\detail\type_vec3.inl
; File c:\users\bachmaer\downloads\glm-0.9.9.0\glm\glm\detail\_vectorize.hpp
;	COMDAT ?call@?$functor1@$02NN$00@detail@glm@@SA?AU?$vec@$02N$00@3@P6ANN@ZABU43@@Z
_TEXT	SEGMENT
__z$ = -24						; size = 8
__y$ = -16						; size = 8
__x$ = -8						; size = 8
___$ReturnUdt$ = 8					; size = 4
_Func$ = 12						; size = 4
_v$ = 16						; size = 4
?call@?$functor1@$02NN$00@detail@glm@@SA?AU?$vec@$02N$00@3@P6ANN@ZABU43@@Z PROC ; glm::detail::functor1<3,double,double,1>::call, COMDAT

; 39   : 		{

	push	ebp
	mov	ebp, esp
	sub	esp, 24					; 00000018H
	push	esi

; 40   : 			return vec<3, R, Q>(Func(v.x), Func(v.y), Func(v.z));

	mov	esi, DWORD PTR _v$[ebp]
	sub	esp, 8
	movsd	xmm0, QWORD PTR [esi]
	movsd	QWORD PTR [esp], xmm0
	call	DWORD PTR _Func$[ebp]
	movsd	xmm0, QWORD PTR [esi+8]
	fstp	QWORD PTR __x$[ebp]
	movsd	QWORD PTR [esp], xmm0
	call	DWORD PTR _Func$[ebp]
	movsd	xmm0, QWORD PTR [esi+16]
	fstp	QWORD PTR __y$[ebp]
	movsd	QWORD PTR [esp], xmm0
	call	DWORD PTR _Func$[ebp]
; File c:\users\bachmaer\downloads\glm-0.9.9.0\glm\glm\detail\type_vec3.inl

; 39   : 		: x(_x), y(_y), z(_z)

	mov	eax, DWORD PTR ___$ReturnUdt$[ebp]
; File c:\users\bachmaer\downloads\glm-0.9.9.0\glm\glm\detail\_vectorize.hpp

; 40   : 			return vec<3, R, Q>(Func(v.x), Func(v.y), Func(v.z));

	add	esp, 8
; File c:\users\bachmaer\downloads\glm-0.9.9.0\glm\glm\detail\type_vec3.inl

; 39   : 		: x(_x), y(_y), z(_z)

	movsd	xmm0, QWORD PTR __x$[ebp]
; File c:\users\bachmaer\downloads\glm-0.9.9.0\glm\glm\detail\_vectorize.hpp

; 40   : 			return vec<3, R, Q>(Func(v.x), Func(v.y), Func(v.z));

	fstp	QWORD PTR __z$[ebp]
; File c:\users\bachmaer\downloads\glm-0.9.9.0\glm\glm\detail\type_vec3.inl

; 39   : 		: x(_x), y(_y), z(_z)

	movsd	QWORD PTR [eax], xmm0
	movsd	xmm0, QWORD PTR __y$[ebp]
	movsd	QWORD PTR [eax+8], xmm0
	movsd	xmm0, QWORD PTR __z$[ebp]
	movsd	QWORD PTR [eax+16], xmm0
; File c:\users\bachmaer\downloads\glm-0.9.9.0\glm\glm\detail\_vectorize.hpp

; 40   : 			return vec<3, R, Q>(Func(v.x), Func(v.y), Func(v.z));

	pop	esi

; 41   : 		}

	mov	esp, ebp
	pop	ebp
	ret	0
?call@?$functor1@$02NN$00@detail@glm@@SA?AU?$vec@$02N$00@3@P6ANN@ZABU43@@Z ENDP ; glm::detail::functor1<3,double,double,1>::call
_TEXT	ENDS
; Function compile flags: /Ogtp
; File c:\users\bachmaer\downloads\glm-0.9.9.0\glm\glm\gtc\quaternion.inl
; File c:\users\bachmaer\downloads\glm-0.9.9.0\glm\glm\detail\type_vec4.inl
; File c:\users\bachmaer\downloads\glm-0.9.9.0\glm\glm\gtc\quaternion.inl
;	COMDAT ??$length@N$01@glm@@YANABU?$tquat@N$01@0@@Z
_TEXT	SEGMENT
tv205 = -8						; size = 8
_q$ = 8							; size = 4
??$length@N$01@glm@@YANABU?$tquat@N$01@0@@Z PROC	; glm::length<double,2>, COMDAT

; 399  : 	{

	push	ebp
	mov	ebp, esp
	and	esp, -8					; fffffff8H
	sub	esp, 8

; 19   : 			vec<4, T, Q> tmp(a.x * b.x, a.y * b.y, a.z * b.z, a.w * b.w);

	mov	eax, DWORD PTR _q$[ebp]
	movsd	xmm3, QWORD PTR [eax]
	movsd	xmm2, QWORD PTR [eax+8]
	movsd	xmm1, QWORD PTR [eax+16]
	movsd	xmm0, QWORD PTR [eax+24]
	mulsd	xmm0, xmm0
	mulsd	xmm1, xmm1
	mulsd	xmm2, xmm2
	mulsd	xmm3, xmm3
; File c:\users\bachmaer\downloads\glm-0.9.9.0\glm\glm\detail\type_vec4.inl

; 192  : 		: x(_x), y(_y), z(_z), w(_w)

	addsd	xmm0, xmm1
; File c:\users\bachmaer\downloads\glm-0.9.9.0\glm\glm\gtc\quaternion.inl

; 20   : 			return (tmp.x + tmp.y) + (tmp.z + tmp.w);

	addsd	xmm2, xmm3
	addsd	xmm0, xmm2

; 400  : 		return glm::sqrt(dot(q, q));

	call	__libm_sse2_sqrt_precise
	movsd	QWORD PTR tv205[esp+8], xmm0
	fld	QWORD PTR tv205[esp+8]

; 401  : 	}

	mov	esp, ebp
	pop	ebp
	ret	0
??$length@N$01@glm@@YANABU?$tquat@N$01@0@@Z ENDP	; glm::length<double,2>
_TEXT	ENDS
; Function compile flags: /Ogtp
; File c:\users\bachmaer\downloads\glm-0.9.9.0\glm\glm\detail\func_geometric.inl
; File c:\users\bachmaer\downloads\glm-0.9.9.0\glm\glm\detail\type_vec3.inl
; File c:\users\bachmaer\downloads\glm-0.9.9.0\glm\glm\detail\func_geometric.inl
; File c:\users\bachmaer\downloads\glm-0.9.9.0\glm\glm\detail\type_vec3.inl
; File c:\users\bachmaer\downloads\glm-0.9.9.0\glm\glm\detail\func_geometric.inl
; File c:\users\bachmaer\downloads\glm-0.9.9.0\glm\glm\detail\type_vec3.inl
; File c:\users\bachmaer\downloads\glm-0.9.9.0\glm\glm\detail\func_geometric.inl
;	COMDAT ?call@?$compute_cross@N$01$0A@@detail@glm@@SA?AU?$vec@$02N$01@3@ABU43@0@Z
_TEXT	SEGMENT
___$ReturnUdt$ = 8					; size = 4
_x$ = 12						; size = 4
_y$ = 16						; size = 4
?call@?$compute_cross@N$01$0A@@detail@glm@@SA?AU?$vec@$02N$01@3@ABU43@0@Z PROC ; glm::detail::compute_cross<double,2,0>::call, COMDAT

; 77   : 		{

	push	ebp
	mov	ebp, esp

; 80   : 			return vec<3, T, Q>(

	mov	eax, DWORD PTR _y$[ebp]
	mov	edx, DWORD PTR _x$[ebp]
; File c:\users\bachmaer\downloads\glm-0.9.9.0\glm\glm\detail\type_vec3.inl

; 39   : 		: x(_x), y(_y), z(_z)

	mov	ecx, DWORD PTR ___$ReturnUdt$[ebp]
; File c:\users\bachmaer\downloads\glm-0.9.9.0\glm\glm\detail\func_geometric.inl

; 80   : 			return vec<3, T, Q>(

	movsd	xmm1, QWORD PTR [eax+16]
	movsd	xmm0, QWORD PTR [eax+8]
	mulsd	xmm1, QWORD PTR [edx+8]
	mulsd	xmm0, QWORD PTR [edx+16]
	movsd	xmm3, QWORD PTR [eax]
	movsd	xmm2, QWORD PTR [edx]
	subsd	xmm1, xmm0
	movaps	xmm0, xmm2
	mulsd	xmm0, QWORD PTR [eax+16]
	mulsd	xmm2, QWORD PTR [eax+8]
	mov	eax, ecx
; File c:\users\bachmaer\downloads\glm-0.9.9.0\glm\glm\detail\type_vec3.inl

; 39   : 		: x(_x), y(_y), z(_z)

	movsd	QWORD PTR [ecx], xmm1
; File c:\users\bachmaer\downloads\glm-0.9.9.0\glm\glm\detail\func_geometric.inl

; 80   : 			return vec<3, T, Q>(

	movaps	xmm1, xmm3
	mulsd	xmm1, QWORD PTR [edx+16]
	mulsd	xmm3, QWORD PTR [edx+8]
	subsd	xmm1, xmm0
	subsd	xmm2, xmm3
; File c:\users\bachmaer\downloads\glm-0.9.9.0\glm\glm\detail\type_vec3.inl

; 39   : 		: x(_x), y(_y), z(_z)

	movsd	QWORD PTR [ecx+8], xmm1
	movsd	QWORD PTR [ecx+16], xmm2
; File c:\users\bachmaer\downloads\glm-0.9.9.0\glm\glm\detail\func_geometric.inl

; 84   : 		}

	pop	ebp
	ret	0
?call@?$compute_cross@N$01$0A@@detail@glm@@SA?AU?$vec@$02N$01@3@ABU43@0@Z ENDP ; glm::detail::compute_cross<double,2,0>::call
_TEXT	ENDS
; Function compile flags: /Ogtp
; File c:\users\bachmaer\downloads\glm-0.9.9.0\glm\glm\detail\func_geometric.inl
; File c:\users\bachmaer\downloads\glm-0.9.9.0\glm\glm\detail\type_vec3.inl
; File c:\users\bachmaer\downloads\glm-0.9.9.0\glm\glm\detail\func_geometric.inl
;	COMDAT ?call@?$compute_dot@U?$vec@$02N$01@glm@@N$0A@@detail@glm@@SANABU?$vec@$02N$01@3@0@Z
_TEXT	SEGMENT
_a$ = 8							; size = 4
_b$ = 12						; size = 4
?call@?$compute_dot@U?$vec@$02N$01@glm@@N$0A@@detail@glm@@SANABU?$vec@$02N$01@3@0@Z PROC ; glm::detail::compute_dot<glm::vec<3,double,2>,double,0>::call, COMDAT

; 57   : 		{

	push	ebp
	mov	ebp, esp
; File c:\users\bachmaer\downloads\glm-0.9.9.0\glm\glm\detail\type_vec3.inl

; 635  : 		return vec<3, T, Q>(

	mov	ecx, DWORD PTR _a$[ebp]
	mov	eax, DWORD PTR _b$[ebp]
	fld	QWORD PTR [ecx+8]
	fmul	QWORD PTR [eax+8]
	fld	QWORD PTR [ecx]
	fmul	QWORD PTR [eax]

; 39   : 		: x(_x), y(_y), z(_z)

	faddp	ST(1), ST(0)

; 635  : 		return vec<3, T, Q>(

	fld	QWORD PTR [ecx+16]
	fmul	QWORD PTR [eax+16]
; File c:\users\bachmaer\downloads\glm-0.9.9.0\glm\glm\detail\func_geometric.inl

; 59   : 			return tmp.x + tmp.y + tmp.z;

	faddp	ST(1), ST(0)

; 60   : 		}

	pop	ebp
	ret	0
?call@?$compute_dot@U?$vec@$02N$01@glm@@N$0A@@detail@glm@@SANABU?$vec@$02N$01@3@0@Z ENDP ; glm::detail::compute_dot<glm::vec<3,double,2>,double,0>::call
_TEXT	ENDS
; Function compile flags: /Ogtp
; File c:\users\bachmaer\downloads\glm-0.9.9.0\glm\glm\detail\_vectorize.hpp
; File c:\users\bachmaer\downloads\glm-0.9.9.0\glm\glm\detail\type_vec3.inl
; File c:\users\bachmaer\downloads\glm-0.9.9.0\glm\glm\detail\_vectorize.hpp
; File c:\users\bachmaer\downloads\glm-0.9.9.0\glm\glm\detail\type_vec3.inl
; File c:\users\bachmaer\downloads\glm-0.9.9.0\glm\glm\detail\_vectorize.hpp
; File c:\users\bachmaer\downloads\glm-0.9.9.0\glm\glm\detail\type_vec3.inl
; File c:\users\bachmaer\downloads\glm-0.9.9.0\glm\glm\detail\_vectorize.hpp
;	COMDAT ?call@?$functor1@$02NN$01@detail@glm@@SA?AU?$vec@$02N$01@3@P6ANN@ZABU43@@Z
_TEXT	SEGMENT
__z$ = -24						; size = 8
__y$ = -16						; size = 8
__x$ = -8						; size = 8
___$ReturnUdt$ = 8					; size = 4
_Func$ = 12						; size = 4
_v$ = 16						; size = 4
?call@?$functor1@$02NN$01@detail@glm@@SA?AU?$vec@$02N$01@3@P6ANN@ZABU43@@Z PROC ; glm::detail::functor1<3,double,double,2>::call, COMDAT

; 39   : 		{

	push	ebp
	mov	ebp, esp
	sub	esp, 24					; 00000018H
	push	esi

; 40   : 			return vec<3, R, Q>(Func(v.x), Func(v.y), Func(v.z));

	mov	esi, DWORD PTR _v$[ebp]
	sub	esp, 8
	movsd	xmm0, QWORD PTR [esi]
	movsd	QWORD PTR [esp], xmm0
	call	DWORD PTR _Func$[ebp]
	movsd	xmm0, QWORD PTR [esi+8]
	fstp	QWORD PTR __x$[ebp]
	movsd	QWORD PTR [esp], xmm0
	call	DWORD PTR _Func$[ebp]
	movsd	xmm0, QWORD PTR [esi+16]
	fstp	QWORD PTR __y$[ebp]
	movsd	QWORD PTR [esp], xmm0
	call	DWORD PTR _Func$[ebp]
; File c:\users\bachmaer\downloads\glm-0.9.9.0\glm\glm\detail\type_vec3.inl

; 39   : 		: x(_x), y(_y), z(_z)

	mov	eax, DWORD PTR ___$ReturnUdt$[ebp]
; File c:\users\bachmaer\downloads\glm-0.9.9.0\glm\glm\detail\_vectorize.hpp

; 40   : 			return vec<3, R, Q>(Func(v.x), Func(v.y), Func(v.z));

	add	esp, 8
; File c:\users\bachmaer\downloads\glm-0.9.9.0\glm\glm\detail\type_vec3.inl

; 39   : 		: x(_x), y(_y), z(_z)

	movsd	xmm0, QWORD PTR __x$[ebp]
; File c:\users\bachmaer\downloads\glm-0.9.9.0\glm\glm\detail\_vectorize.hpp

; 40   : 			return vec<3, R, Q>(Func(v.x), Func(v.y), Func(v.z));

	fstp	QWORD PTR __z$[ebp]
; File c:\users\bachmaer\downloads\glm-0.9.9.0\glm\glm\detail\type_vec3.inl

; 39   : 		: x(_x), y(_y), z(_z)

	movsd	QWORD PTR [eax], xmm0
	movsd	xmm0, QWORD PTR __y$[ebp]
	movsd	QWORD PTR [eax+8], xmm0
	movsd	xmm0, QWORD PTR __z$[ebp]
	movsd	QWORD PTR [eax+16], xmm0
; File c:\users\bachmaer\downloads\glm-0.9.9.0\glm\glm\detail\_vectorize.hpp

; 40   : 			return vec<3, R, Q>(Func(v.x), Func(v.y), Func(v.z));

	pop	esi

; 41   : 		}

	mov	esp, ebp
	pop	ebp
	ret	0
?call@?$functor1@$02NN$01@detail@glm@@SA?AU?$vec@$02N$01@3@P6ANN@ZABU43@@Z ENDP ; glm::detail::functor1<3,double,double,2>::call
_TEXT	ENDS
; Function compile flags: /Ogtp
; File c:\users\bachmaer\downloads\glm-0.9.9.0\glm\glm\gtc\quaternion.inl
; File c:\users\bachmaer\downloads\glm-0.9.9.0\glm\glm\detail\type_vec4.inl
; File c:\users\bachmaer\downloads\glm-0.9.9.0\glm\glm\gtc\quaternion.inl
; File c:\program files (x86)\windows kits\10\include\10.0.17134.0\ucrt\corecrt_math.h
; File c:\users\bachmaer\downloads\glm-0.9.9.0\glm\glm\gtc\quaternion.inl
;	COMDAT ??$length@M$0A@@glm@@YAMABU?$tquat@M$0A@@0@@Z
_TEXT	SEGMENT
tv218 = -4						; size = 4
_q$ = 8							; size = 4
??$length@M$0A@@glm@@YAMABU?$tquat@M$0A@@0@@Z PROC	; glm::length<float,0>, COMDAT

; 399  : 	{

	push	ebp
	mov	ebp, esp
	and	esp, -8					; fffffff8H
	sub	esp, 8

; 19   : 			vec<4, T, Q> tmp(a.x * b.x, a.y * b.y, a.z * b.z, a.w * b.w);

	mov	eax, DWORD PTR _q$[ebp]
	movss	xmm0, DWORD PTR [eax+8]
	movss	xmm3, DWORD PTR [eax]
	movss	xmm2, DWORD PTR [eax+4]
	movss	xmm1, DWORD PTR [eax+12]
	mulss	xmm1, xmm1
	mulss	xmm0, xmm0
	mulss	xmm2, xmm2
	mulss	xmm3, xmm3
; File c:\users\bachmaer\downloads\glm-0.9.9.0\glm\glm\detail\type_vec4.inl

